
xenstored:     file format elf32-littlearm

Disassembly of section .init:

00009100 <_init>:
    9100:	e52de004 	str	lr, [sp, -#4]!
    9104:	eb000144 	bl	961c <call_gmon_start>
    9108:	eb000169 	bl	96b4 <frame_dummy>
    910c:	eb0045a6 	bl	1a7ac <__do_global_ctors_aux>
    9110:	e49df004 	ldr	pc, [sp], #4
Disassembly of section .plt:

00009114 <.plt>:
    9114:	e52de004 	str	lr, [sp, -#4]!
    9118:	e59fe010 	ldr	lr, [pc, #16]	; 9130 <_init+0x30>
    911c:	e08fe00e 	add	lr, pc, lr
    9120:	e5bef008 	ldr	pc, [lr, #8]!
    9124:	e59fc004 	ldr	ip, [pc, #4]	; 9130 <_init+0x30>
    9128:	e08fc00c 	add	ip, pc, ip
    912c:	e59cf000 	ldr	pc, [ip]
    9130:	0001ba80 	andeq	fp, r1, r0, lsl #21
    9134:	e59fc004 	ldr	ip, [pc, #4]	; 9140 <_init+0x40>
    9138:	e08fc00c 	add	ip, pc, ip
    913c:	e59cf000 	ldr	pc, [ip]
    9140:	0001ba74 	andeq	fp, r1, r4, ror sl
    9144:	e59fc004 	ldr	ip, [pc, #4]	; 9150 <_init+0x50>
    9148:	e08fc00c 	add	ip, pc, ip
    914c:	e59cf000 	ldr	pc, [ip]
    9150:	0001ba68 	andeq	fp, r1, r8, ror #20
    9154:	e59fc004 	ldr	ip, [pc, #4]	; 9160 <_init+0x60>
    9158:	e08fc00c 	add	ip, pc, ip
    915c:	e59cf000 	ldr	pc, [ip]
    9160:	0001ba5c 	andeq	fp, r1, ip, asr sl
    9164:	e59fc004 	ldr	ip, [pc, #4]	; 9170 <_init+0x70>
    9168:	e08fc00c 	add	ip, pc, ip
    916c:	e59cf000 	ldr	pc, [ip]
    9170:	0001ba50 	andeq	fp, r1, r0, asr sl
    9174:	e59fc004 	ldr	ip, [pc, #4]	; 9180 <_init+0x80>
    9178:	e08fc00c 	add	ip, pc, ip
    917c:	e59cf000 	ldr	pc, [ip]
    9180:	0001ba44 	andeq	fp, r1, r4, asr #20
    9184:	e59fc004 	ldr	ip, [pc, #4]	; 9190 <_init+0x90>
    9188:	e08fc00c 	add	ip, pc, ip
    918c:	e59cf000 	ldr	pc, [ip]
    9190:	0001ba38 	andeq	fp, r1, r8, lsr sl
    9194:	e59fc004 	ldr	ip, [pc, #4]	; 91a0 <_init+0xa0>
    9198:	e08fc00c 	add	ip, pc, ip
    919c:	e59cf000 	ldr	pc, [ip]
    91a0:	0001ba2c 	andeq	fp, r1, ip, lsr #20
    91a4:	e59fc004 	ldr	ip, [pc, #4]	; 91b0 <_init+0xb0>
    91a8:	e08fc00c 	add	ip, pc, ip
    91ac:	e59cf000 	ldr	pc, [ip]
    91b0:	0001ba20 	andeq	fp, r1, r0, lsr #20
    91b4:	e59fc004 	ldr	ip, [pc, #4]	; 91c0 <_init+0xc0>
    91b8:	e08fc00c 	add	ip, pc, ip
    91bc:	e59cf000 	ldr	pc, [ip]
    91c0:	0001ba14 	andeq	fp, r1, r4, lsl sl
    91c4:	e59fc004 	ldr	ip, [pc, #4]	; 91d0 <_init+0xd0>
    91c8:	e08fc00c 	add	ip, pc, ip
    91cc:	e59cf000 	ldr	pc, [ip]
    91d0:	0001ba08 	andeq	fp, r1, r8, lsl #20
    91d4:	e59fc004 	ldr	ip, [pc, #4]	; 91e0 <_init+0xe0>
    91d8:	e08fc00c 	add	ip, pc, ip
    91dc:	e59cf000 	ldr	pc, [ip]
    91e0:	0001b9fc 	streqd	fp, [r1], -ip
    91e4:	e59fc004 	ldr	ip, [pc, #4]	; 91f0 <_init+0xf0>
    91e8:	e08fc00c 	add	ip, pc, ip
    91ec:	e59cf000 	ldr	pc, [ip]
    91f0:	0001b9f0 	streqd	fp, [r1], -r0
    91f4:	e59fc004 	ldr	ip, [pc, #4]	; 9200 <_init+0x100>
    91f8:	e08fc00c 	add	ip, pc, ip
    91fc:	e59cf000 	ldr	pc, [ip]
    9200:	0001b9e4 	andeq	fp, r1, r4, ror #19
    9204:	e59fc004 	ldr	ip, [pc, #4]	; 9210 <_init+0x110>
    9208:	e08fc00c 	add	ip, pc, ip
    920c:	e59cf000 	ldr	pc, [ip]
    9210:	0001b9d8 	ldreqd	fp, [r1], -r8
    9214:	e59fc004 	ldr	ip, [pc, #4]	; 9220 <_init+0x120>
    9218:	e08fc00c 	add	ip, pc, ip
    921c:	e59cf000 	ldr	pc, [ip]
    9220:	0001b9cc 	andeq	fp, r1, ip, asr #19
    9224:	e59fc004 	ldr	ip, [pc, #4]	; 9230 <_init+0x130>
    9228:	e08fc00c 	add	ip, pc, ip
    922c:	e59cf000 	ldr	pc, [ip]
    9230:	0001b9c0 	andeq	fp, r1, r0, asr #19
    9234:	e59fc004 	ldr	ip, [pc, #4]	; 9240 <_init+0x140>
    9238:	e08fc00c 	add	ip, pc, ip
    923c:	e59cf000 	ldr	pc, [ip]
    9240:	0001b9b4 	streqh	fp, [r1], -r4
    9244:	e59fc004 	ldr	ip, [pc, #4]	; 9250 <_init+0x150>
    9248:	e08fc00c 	add	ip, pc, ip
    924c:	e59cf000 	ldr	pc, [ip]
    9250:	0001b9a8 	andeq	fp, r1, r8, lsr #19
    9254:	e59fc004 	ldr	ip, [pc, #4]	; 9260 <_init+0x160>
    9258:	e08fc00c 	add	ip, pc, ip
    925c:	e59cf000 	ldr	pc, [ip]
    9260:	0001b99c 	muleq	r1, ip, r9
    9264:	e59fc004 	ldr	ip, [pc, #4]	; 9270 <_init+0x170>
    9268:	e08fc00c 	add	ip, pc, ip
    926c:	e59cf000 	ldr	pc, [ip]
    9270:	0001b990 	muleq	r1, r0, r9
    9274:	e59fc004 	ldr	ip, [pc, #4]	; 9280 <_init+0x180>
    9278:	e08fc00c 	add	ip, pc, ip
    927c:	e59cf000 	ldr	pc, [ip]
    9280:	0001b984 	andeq	fp, r1, r4, lsl #19
    9284:	e59fc004 	ldr	ip, [pc, #4]	; 9290 <_init+0x190>
    9288:	e08fc00c 	add	ip, pc, ip
    928c:	e59cf000 	ldr	pc, [ip]
    9290:	0001b978 	andeq	fp, r1, r8, ror r9
    9294:	e59fc004 	ldr	ip, [pc, #4]	; 92a0 <_init+0x1a0>
    9298:	e08fc00c 	add	ip, pc, ip
    929c:	e59cf000 	ldr	pc, [ip]
    92a0:	0001b96c 	andeq	fp, r1, ip, ror #18
    92a4:	e59fc004 	ldr	ip, [pc, #4]	; 92b0 <_init+0x1b0>
    92a8:	e08fc00c 	add	ip, pc, ip
    92ac:	e59cf000 	ldr	pc, [ip]
    92b0:	0001b960 	andeq	fp, r1, r0, ror #18
    92b4:	e59fc004 	ldr	ip, [pc, #4]	; 92c0 <_init+0x1c0>
    92b8:	e08fc00c 	add	ip, pc, ip
    92bc:	e59cf000 	ldr	pc, [ip]
    92c0:	0001b954 	andeq	fp, r1, r4, asr r9
    92c4:	e59fc004 	ldr	ip, [pc, #4]	; 92d0 <_init+0x1d0>
    92c8:	e08fc00c 	add	ip, pc, ip
    92cc:	e59cf000 	ldr	pc, [ip]
    92d0:	0001b948 	andeq	fp, r1, r8, asr #18
    92d4:	e59fc004 	ldr	ip, [pc, #4]	; 92e0 <_init+0x1e0>
    92d8:	e08fc00c 	add	ip, pc, ip
    92dc:	e59cf000 	ldr	pc, [ip]
    92e0:	0001b93c 	andeq	fp, r1, ip, lsr r9
    92e4:	e59fc004 	ldr	ip, [pc, #4]	; 92f0 <_init+0x1f0>
    92e8:	e08fc00c 	add	ip, pc, ip
    92ec:	e59cf000 	ldr	pc, [ip]
    92f0:	0001b930 	andeq	fp, r1, r0, lsr r9
    92f4:	e59fc004 	ldr	ip, [pc, #4]	; 9300 <_init+0x200>
    92f8:	e08fc00c 	add	ip, pc, ip
    92fc:	e59cf000 	ldr	pc, [ip]
    9300:	0001b924 	andeq	fp, r1, r4, lsr #18
    9304:	e59fc004 	ldr	ip, [pc, #4]	; 9310 <_init+0x210>
    9308:	e08fc00c 	add	ip, pc, ip
    930c:	e59cf000 	ldr	pc, [ip]
    9310:	0001b918 	andeq	fp, r1, r8, lsl r9
    9314:	e59fc004 	ldr	ip, [pc, #4]	; 9320 <_init+0x220>
    9318:	e08fc00c 	add	ip, pc, ip
    931c:	e59cf000 	ldr	pc, [ip]
    9320:	0001b90c 	andeq	fp, r1, ip, lsl #18
    9324:	e59fc004 	ldr	ip, [pc, #4]	; 9330 <_init+0x230>
    9328:	e08fc00c 	add	ip, pc, ip
    932c:	e59cf000 	ldr	pc, [ip]
    9330:	0001b900 	andeq	fp, r1, r0, lsl #18
    9334:	e59fc004 	ldr	ip, [pc, #4]	; 9340 <_init+0x240>
    9338:	e08fc00c 	add	ip, pc, ip
    933c:	e59cf000 	ldr	pc, [ip]
    9340:	0001b8f4 	streqd	fp, [r1], -r4
    9344:	e59fc004 	ldr	ip, [pc, #4]	; 9350 <_init+0x250>
    9348:	e08fc00c 	add	ip, pc, ip
    934c:	e59cf000 	ldr	pc, [ip]
    9350:	0001b8e8 	andeq	fp, r1, r8, ror #17
    9354:	e59fc004 	ldr	ip, [pc, #4]	; 9360 <_init+0x260>
    9358:	e08fc00c 	add	ip, pc, ip
    935c:	e59cf000 	ldr	pc, [ip]
    9360:	0001b8dc 	ldreqd	fp, [r1], -ip
    9364:	e59fc004 	ldr	ip, [pc, #4]	; 9370 <_init+0x270>
    9368:	e08fc00c 	add	ip, pc, ip
    936c:	e59cf000 	ldr	pc, [ip]
    9370:	0001b8d0 	ldreqd	fp, [r1], -r0
    9374:	e59fc004 	ldr	ip, [pc, #4]	; 9380 <_init+0x280>
    9378:	e08fc00c 	add	ip, pc, ip
    937c:	e59cf000 	ldr	pc, [ip]
    9380:	0001b8c4 	andeq	fp, r1, r4, asr #17
    9384:	e59fc004 	ldr	ip, [pc, #4]	; 9390 <_init+0x290>
    9388:	e08fc00c 	add	ip, pc, ip
    938c:	e59cf000 	ldr	pc, [ip]
    9390:	0001b8b8 	streqh	fp, [r1], -r8
    9394:	e59fc004 	ldr	ip, [pc, #4]	; 93a0 <_init+0x2a0>
    9398:	e08fc00c 	add	ip, pc, ip
    939c:	e59cf000 	ldr	pc, [ip]
    93a0:	0001b8ac 	andeq	fp, r1, ip, lsr #17
    93a4:	e59fc004 	ldr	ip, [pc, #4]	; 93b0 <_init+0x2b0>
    93a8:	e08fc00c 	add	ip, pc, ip
    93ac:	e59cf000 	ldr	pc, [ip]
    93b0:	0001b8a0 	andeq	fp, r1, r0, lsr #17
    93b4:	e59fc004 	ldr	ip, [pc, #4]	; 93c0 <_init+0x2c0>
    93b8:	e08fc00c 	add	ip, pc, ip
    93bc:	e59cf000 	ldr	pc, [ip]
    93c0:	0001b894 	muleq	r1, r4, r8
    93c4:	e59fc004 	ldr	ip, [pc, #4]	; 93d0 <_init+0x2d0>
    93c8:	e08fc00c 	add	ip, pc, ip
    93cc:	e59cf000 	ldr	pc, [ip]
    93d0:	0001b888 	andeq	fp, r1, r8, lsl #17
    93d4:	e59fc004 	ldr	ip, [pc, #4]	; 93e0 <_init+0x2e0>
    93d8:	e08fc00c 	add	ip, pc, ip
    93dc:	e59cf000 	ldr	pc, [ip]
    93e0:	0001b87c 	andeq	fp, r1, ip, ror r8
    93e4:	e59fc004 	ldr	ip, [pc, #4]	; 93f0 <_init+0x2f0>
    93e8:	e08fc00c 	add	ip, pc, ip
    93ec:	e59cf000 	ldr	pc, [ip]
    93f0:	0001b870 	andeq	fp, r1, r0, ror r8
    93f4:	e59fc004 	ldr	ip, [pc, #4]	; 9400 <_init+0x300>
    93f8:	e08fc00c 	add	ip, pc, ip
    93fc:	e59cf000 	ldr	pc, [ip]
    9400:	0001b864 	andeq	fp, r1, r4, ror #16
    9404:	e59fc004 	ldr	ip, [pc, #4]	; 9410 <_init+0x310>
    9408:	e08fc00c 	add	ip, pc, ip
    940c:	e59cf000 	ldr	pc, [ip]
    9410:	0001b858 	andeq	fp, r1, r8, asr r8
    9414:	e59fc004 	ldr	ip, [pc, #4]	; 9420 <_init+0x320>
    9418:	e08fc00c 	add	ip, pc, ip
    941c:	e59cf000 	ldr	pc, [ip]
    9420:	0001b84c 	andeq	fp, r1, ip, asr #16
    9424:	e59fc004 	ldr	ip, [pc, #4]	; 9430 <_init+0x330>
    9428:	e08fc00c 	add	ip, pc, ip
    942c:	e59cf000 	ldr	pc, [ip]
    9430:	0001b840 	andeq	fp, r1, r0, asr #16
    9434:	e59fc004 	ldr	ip, [pc, #4]	; 9440 <_init+0x340>
    9438:	e08fc00c 	add	ip, pc, ip
    943c:	e59cf000 	ldr	pc, [ip]
    9440:	0001b834 	andeq	fp, r1, r4, lsr r8
    9444:	e59fc004 	ldr	ip, [pc, #4]	; 9450 <_init+0x350>
    9448:	e08fc00c 	add	ip, pc, ip
    944c:	e59cf000 	ldr	pc, [ip]
    9450:	0001b828 	andeq	fp, r1, r8, lsr #16
    9454:	e59fc004 	ldr	ip, [pc, #4]	; 9460 <_init+0x360>
    9458:	e08fc00c 	add	ip, pc, ip
    945c:	e59cf000 	ldr	pc, [ip]
    9460:	0001b81c 	andeq	fp, r1, ip, lsl r8
    9464:	e59fc004 	ldr	ip, [pc, #4]	; 9470 <_init+0x370>
    9468:	e08fc00c 	add	ip, pc, ip
    946c:	e59cf000 	ldr	pc, [ip]
    9470:	0001b810 	andeq	fp, r1, r0, lsl r8
    9474:	e59fc004 	ldr	ip, [pc, #4]	; 9480 <_init+0x380>
    9478:	e08fc00c 	add	ip, pc, ip
    947c:	e59cf000 	ldr	pc, [ip]
    9480:	0001b804 	andeq	fp, r1, r4, lsl #16
    9484:	e59fc004 	ldr	ip, [pc, #4]	; 9490 <_init+0x390>
    9488:	e08fc00c 	add	ip, pc, ip
    948c:	e59cf000 	ldr	pc, [ip]
    9490:	0001b7f8 	streqd	fp, [r1], -r8
    9494:	e59fc004 	ldr	ip, [pc, #4]	; 94a0 <_init+0x3a0>
    9498:	e08fc00c 	add	ip, pc, ip
    949c:	e59cf000 	ldr	pc, [ip]
    94a0:	0001b7ec 	andeq	fp, r1, ip, ror #15
    94a4:	e59fc004 	ldr	ip, [pc, #4]	; 94b0 <_init+0x3b0>
    94a8:	e08fc00c 	add	ip, pc, ip
    94ac:	e59cf000 	ldr	pc, [ip]
    94b0:	0001b7e0 	andeq	fp, r1, r0, ror #15
    94b4:	e59fc004 	ldr	ip, [pc, #4]	; 94c0 <_init+0x3c0>
    94b8:	e08fc00c 	add	ip, pc, ip
    94bc:	e59cf000 	ldr	pc, [ip]
    94c0:	0001b7d4 	ldreqd	fp, [r1], -r4
    94c4:	e59fc004 	ldr	ip, [pc, #4]	; 94d0 <_init+0x3d0>
    94c8:	e08fc00c 	add	ip, pc, ip
    94cc:	e59cf000 	ldr	pc, [ip]
    94d0:	0001b7c8 	andeq	fp, r1, r8, asr #15
    94d4:	e59fc004 	ldr	ip, [pc, #4]	; 94e0 <_init+0x3e0>
    94d8:	e08fc00c 	add	ip, pc, ip
    94dc:	e59cf000 	ldr	pc, [ip]
    94e0:	0001b7bc 	streqh	fp, [r1], -ip
    94e4:	e59fc004 	ldr	ip, [pc, #4]	; 94f0 <_init+0x3f0>
    94e8:	e08fc00c 	add	ip, pc, ip
    94ec:	e59cf000 	ldr	pc, [ip]
    94f0:	0001b7b0 	streqh	fp, [r1], -r0
    94f4:	e59fc004 	ldr	ip, [pc, #4]	; 9500 <_init+0x400>
    94f8:	e08fc00c 	add	ip, pc, ip
    94fc:	e59cf000 	ldr	pc, [ip]
    9500:	0001b7a4 	andeq	fp, r1, r4, lsr #15
    9504:	e59fc004 	ldr	ip, [pc, #4]	; 9510 <_init+0x410>
    9508:	e08fc00c 	add	ip, pc, ip
    950c:	e59cf000 	ldr	pc, [ip]
    9510:	0001b798 	muleq	r1, r8, r7
    9514:	e59fc004 	ldr	ip, [pc, #4]	; 9520 <_init+0x420>
    9518:	e08fc00c 	add	ip, pc, ip
    951c:	e59cf000 	ldr	pc, [ip]
    9520:	0001b78c 	andeq	fp, r1, ip, lsl #15
    9524:	e59fc004 	ldr	ip, [pc, #4]	; 9530 <_init+0x430>
    9528:	e08fc00c 	add	ip, pc, ip
    952c:	e59cf000 	ldr	pc, [ip]
    9530:	0001b780 	andeq	fp, r1, r0, lsl #15
    9534:	e59fc004 	ldr	ip, [pc, #4]	; 9540 <_init+0x440>
    9538:	e08fc00c 	add	ip, pc, ip
    953c:	e59cf000 	ldr	pc, [ip]
    9540:	0001b774 	andeq	fp, r1, r4, ror r7
    9544:	e59fc004 	ldr	ip, [pc, #4]	; 9550 <_init+0x450>
    9548:	e08fc00c 	add	ip, pc, ip
    954c:	e59cf000 	ldr	pc, [ip]
    9550:	0001b768 	andeq	fp, r1, r8, ror #14
    9554:	e59fc004 	ldr	ip, [pc, #4]	; 9560 <_init+0x460>
    9558:	e08fc00c 	add	ip, pc, ip
    955c:	e59cf000 	ldr	pc, [ip]
    9560:	0001b75c 	andeq	fp, r1, ip, asr r7
    9564:	e59fc004 	ldr	ip, [pc, #4]	; 9570 <_init+0x470>
    9568:	e08fc00c 	add	ip, pc, ip
    956c:	e59cf000 	ldr	pc, [ip]
    9570:	0001b750 	andeq	fp, r1, r0, asr r7
    9574:	e59fc004 	ldr	ip, [pc, #4]	; 9580 <_init+0x480>
    9578:	e08fc00c 	add	ip, pc, ip
    957c:	e59cf000 	ldr	pc, [ip]
    9580:	0001b744 	andeq	fp, r1, r4, asr #14
    9584:	e59fc004 	ldr	ip, [pc, #4]	; 9590 <_init+0x490>
    9588:	e08fc00c 	add	ip, pc, ip
    958c:	e59cf000 	ldr	pc, [ip]
    9590:	0001b738 	andeq	fp, r1, r8, lsr r7
    9594:	e59fc004 	ldr	ip, [pc, #4]	; 95a0 <_init+0x4a0>
    9598:	e08fc00c 	add	ip, pc, ip
    959c:	e59cf000 	ldr	pc, [ip]
    95a0:	0001b72c 	andeq	fp, r1, ip, lsr #14
    95a4:	e59fc004 	ldr	ip, [pc, #4]	; 95b0 <_init+0x4b0>
    95a8:	e08fc00c 	add	ip, pc, ip
    95ac:	e59cf000 	ldr	pc, [ip]
    95b0:	0001b720 	andeq	fp, r1, r0, lsr #14
    95b4:	e59fc004 	ldr	ip, [pc, #4]	; 95c0 <_init+0x4c0>
    95b8:	e08fc00c 	add	ip, pc, ip
    95bc:	e59cf000 	ldr	pc, [ip]
    95c0:	0001b714 	andeq	fp, r1, r4, lsl r7
    95c4:	e59fc004 	ldr	ip, [pc, #4]	; 95d0 <_init+0x4d0>
    95c8:	e08fc00c 	add	ip, pc, ip
    95cc:	e59cf000 	ldr	pc, [ip]
    95d0:	0001b708 	andeq	fp, r1, r8, lsl #14
    95d4:	e59fc004 	ldr	ip, [pc, #4]	; 95e0 <_init+0x4e0>
    95d8:	e08fc00c 	add	ip, pc, ip
    95dc:	e59cf000 	ldr	pc, [ip]
    95e0:	0001b6fc 	streqd	fp, [r1], -ip
Disassembly of section .text:

000095e4 <_start>:
    95e4:	e59fc024 	ldr	ip, [pc, #36]	; 9610 <_start+0x2c>
    95e8:	e3a0b000 	mov	fp, #0	; 0x0
    95ec:	e49d1004 	ldr	r1, [sp], #4
    95f0:	e1a0200d 	mov	r2, sp
    95f4:	e52d2004 	str	r2, [sp, -#4]!
    95f8:	e52d0004 	str	r0, [sp, -#4]!
    95fc:	e59f0010 	ldr	r0, [pc, #16]	; 9614 <_start+0x30>
    9600:	e59f3010 	ldr	r3, [pc, #16]	; 9618 <_start+0x34>
    9604:	e52dc004 	str	ip, [sp, -#4]!
    9608:	ebffff91 	bl	9454 <_init+0x354>
    960c:	ebffff54 	bl	9364 <_init+0x264>
    9610:	0001a6e8 	andeq	sl, r1, r8, ror #13
    9614:	0000db50 	andeq	sp, r0, r0, asr fp
    9618:	0001a6a4 	andeq	sl, r1, r4, lsr #13

0000961c <call_gmon_start>:
    961c:	e92d4400 	stmdb	sp!, {sl, lr}
    9620:	e59fa01c 	ldr	sl, [pc, #28]	; 9644 <call_gmon_start+0x28>
    9624:	e59f301c 	ldr	r3, [pc, #28]	; 9648 <call_gmon_start+0x2c>
    9628:	e08fa00a 	add	sl, pc, sl
    962c:	e79a3003 	ldr	r3, [sl, r3]
    9630:	e3530000 	cmp	r3, #0	; 0x0
    9634:	08bd8400 	ldmeqia	sp!, {sl, pc}
    9638:	e1a0e00f 	mov	lr, pc
    963c:	e1a0f003 	mov	pc, r3
    9640:	e8bd8400 	ldmia	sp!, {sl, pc}
    9644:	0001b574 	andeq	fp, r1, r4, ror r5
    9648:	0000013c 	andeq	r0, r0, ip, lsr r1

0000964c <__do_global_dtors_aux>:
    964c:	e92d4030 	stmdb	sp!, {r4, r5, lr}
    9650:	e59f504c 	ldr	r5, [pc, #76]	; 96a4 <__do_global_dtors_aux+0x58>
    9654:	e5d53000 	ldrb	r3, [r5]
    9658:	e3530000 	cmp	r3, #0	; 0x0
    965c:	18bd8030 	ldmneia	sp!, {r4, r5, pc}
    9660:	e59f4040 	ldr	r4, [pc, #64]	; 96a8 <__do_global_dtors_aux+0x5c>
    9664:	e5943000 	ldr	r3, [r4]
    9668:	e5932000 	ldr	r2, [r3]
    966c:	e3520000 	cmp	r2, #0	; 0x0
    9670:	0a000008 	beq	9698 <__do_global_dtors_aux+0x4c>
    9674:	e5943000 	ldr	r3, [r4]
    9678:	e2833004 	add	r3, r3, #4	; 0x4
    967c:	e5843000 	str	r3, [r4]
    9680:	e1a0e00f 	mov	lr, pc
    9684:	e1a0f002 	mov	pc, r2
    9688:	e5943000 	ldr	r3, [r4]
    968c:	e5932000 	ldr	r2, [r3]
    9690:	e3520000 	cmp	r2, #0	; 0x0
    9694:	1afffff6 	bne	9674 <__do_global_dtors_aux+0x28>
    9698:	e3a03001 	mov	r3, #1	; 0x1
    969c:	e5c53000 	strb	r3, [r5]
    96a0:	e8bd8030 	ldmia	sp!, {r4, r5, pc}
    96a4:	00024d10 	andeq	r4, r2, r0, lsl sp
    96a8:	0002478c 	andeq	r4, r2, ip, lsl #15

000096ac <call___do_global_dtors_aux>:
    96ac:	e52de004 	str	lr, [sp, -#4]!
    96b0:	e49df004 	ldr	pc, [sp], #4

000096b4 <frame_dummy>:
    96b4:	e59f0018 	ldr	r0, [pc, #24]	; 96d4 <frame_dummy+0x20>
    96b8:	e5903000 	ldr	r3, [r0]
    96bc:	e3530000 	cmp	r3, #0	; 0x0
    96c0:	01a0f00e 	moveq	pc, lr
    96c4:	e59f300c 	ldr	r3, [pc, #12]	; 96d8 <frame_dummy+0x24>
    96c8:	e3530000 	cmp	r3, #0	; 0x0
    96cc:	01a0f00e 	moveq	pc, lr
    96d0:	eaffda4a 	b	0 <_init-0x9100>
    96d4:	00024ba0 	andeq	r4, r2, r0, lsr #23
    96d8:	00000000 	andeq	r0, r0, r0

000096dc <call_frame_dummy>:
    96dc:	e52de004 	str	lr, [sp, -#4]!
    96e0:	e49df004 	ldr	pc, [sp], #4

000096e4 <tdb_context>:
    96e4:	e1a0c00d 	mov	ip, sp
    96e8:	e92dd800 	stmdb	sp!, {fp, ip, lr, pc}
    96ec:	e24cb004 	sub	fp, ip, #4	; 0x4
    96f0:	e24dd008 	sub	sp, sp, #8	; 0x8
    96f4:	e50b0010 	str	r0, [fp, -#16]
    96f8:	e51b3010 	ldr	r3, [fp, -#16]
    96fc:	e3530000 	cmp	r3, #0	; 0x0
    9700:	0a000003 	beq	9714 <tdb_context+0x30>
    9704:	e51b3010 	ldr	r3, [fp, -#16]
    9708:	e5933020 	ldr	r3, [r3, #32]
    970c:	e3530000 	cmp	r3, #0	; 0x0
    9710:	1a000003 	bne	9724 <tdb_context+0x40>
    9714:	e59f3024 	ldr	r3, [pc, #36]	; 9740 <tdb_context+0x5c>
    9718:	e5933000 	ldr	r3, [r3]
    971c:	e50b3014 	str	r3, [fp, -#20]
    9720:	ea000004 	b	9738 <tdb_context+0x54>
    9724:	e51b3010 	ldr	r3, [fp, -#16]
    9728:	e5930020 	ldr	r0, [r3, #32]
    972c:	eb001aa6 	bl	101cc <tdb_transaction_context>
    9730:	e1a03000 	mov	r3, r0
    9734:	e50b3014 	str	r3, [fp, -#20]
    9738:	e51b0014 	ldr	r0, [fp, -#20]
    973c:	e91ba800 	ldmdb	fp, {fp, sp, pc}
    9740:	00024d24 	andeq	r4, r2, r4, lsr #26

00009744 <replace_tdb>:
    9744:	e1a0c00d 	mov	ip, sp
    9748:	e92dd810 	stmdb	sp!, {r4, fp, ip, lr, pc}
    974c:	e24cb004 	sub	fp, ip, #4	; 0x4
    9750:	e24dd00c 	sub	sp, sp, #12	; 0xc
    9754:	e50b0014 	str	r0, [fp, -#20]
    9758:	e50b1018 	str	r1, [fp, -#24]
    975c:	eb001cb2 	bl	10a2c <xs_daemon_tdb>
    9760:	e1a03000 	mov	r3, r0
    9764:	e51b0014 	ldr	r0, [fp, -#20]
    9768:	e1a01003 	mov	r1, r3
    976c:	ebfffe78 	bl	9154 <_init+0x54>
    9770:	e1a03000 	mov	r3, r0
    9774:	e3530000 	cmp	r3, #0	; 0x0
    9778:	0a000002 	beq	9788 <replace_tdb+0x44>
    977c:	e3a03000 	mov	r3, #0	; 0x0
    9780:	e50b301c 	str	r3, [fp, -#28]
    9784:	ea00000b 	b	97b8 <replace_tdb+0x74>
    9788:	e59f3030 	ldr	r3, [pc, #48]	; 97c0 <replace_tdb+0x7c>
    978c:	e5930000 	ldr	r0, [r3]
    9790:	eb003d06 	bl	18bb0 <tdb_close>
    9794:	e59f4024 	ldr	r4, [pc, #36]	; 97c0 <replace_tdb+0x7c>
    9798:	eb0026c1 	bl	132a4 <talloc_autofree_context>
    979c:	e1a03000 	mov	r3, r0
    97a0:	e1a00003 	mov	r0, r3
    97a4:	e51b1018 	ldr	r1, [fp, -#24]
    97a8:	eb002234 	bl	12080 <talloc_steal>
    97ac:	e5840000 	str	r0, [r4]
    97b0:	e3a03001 	mov	r3, #1	; 0x1
    97b4:	e50b301c 	str	r3, [fp, -#28]
    97b8:	e51b001c 	ldr	r0, [fp, -#28]
    97bc:	e91ba810 	ldmdb	fp, {r4, fp, sp, pc}
    97c0:	00024d24 	andeq	r4, r2, r4, lsr #26

000097c4 <sockmsg_string>:
    97c4:	e1a0c00d 	mov	ip, sp
    97c8:	e92dd800 	stmdb	sp!, {fp, ip, lr, pc}
    97cc:	e24cb004 	sub	fp, ip, #4	; 0x4
    97d0:	e24dd008 	sub	sp, sp, #8	; 0x8
    97d4:	e50b0010 	str	r0, [fp, -#16]
    97d8:	e51b3010 	ldr	r3, [fp, -#16]
    97dc:	e3530011 	cmp	r3, #17	; 0x11
    97e0:	979ff103 	ldrls	pc, [pc, r3, lsl #2]
    97e4:	ea000047 	b	9908 <sockmsg_string+0x144>
    97e8:	00009830 	andeq	r9, r0, r0, lsr r8
    97ec:	0000983c 	andeq	r9, r0, ip, lsr r8
    97f0:	00009848 	andeq	r9, r0, r8, asr #16
    97f4:	00009854 	andeq	r9, r0, r4, asr r8
    97f8:	00009860 	andeq	r9, r0, r0, ror #16
    97fc:	0000986c 	andeq	r9, r0, ip, ror #16
    9800:	00009878 	andeq	r9, r0, r8, ror r8
    9804:	00009884 	andeq	r9, r0, r4, lsl #17
    9808:	00009890 	muleq	r0, r0, r8
    980c:	0000989c 	muleq	r0, ip, r8
    9810:	000098a8 	andeq	r9, r0, r8, lsr #17
    9814:	000098b4 	streqh	r9, [r0], -r4
    9818:	000098c0 	andeq	r9, r0, r0, asr #17
    981c:	000098cc 	andeq	r9, r0, ip, asr #17
    9820:	000098d8 	ldreqd	r9, [r0], -r8
    9824:	000098e4 	andeq	r9, r0, r4, ror #17
    9828:	000098f0 	streqd	r9, [r0], -r0
    982c:	000098fc 	streqd	r9, [r0], -ip
    9830:	e59f30e0 	ldr	r3, [pc, #224]	; 9918 <sockmsg_string+0x154>
    9834:	e50b3014 	str	r3, [fp, -#20]
    9838:	ea000034 	b	9910 <sockmsg_string+0x14c>
    983c:	e59f30d8 	ldr	r3, [pc, #216]	; 991c <sockmsg_string+0x158>
    9840:	e50b3014 	str	r3, [fp, -#20]
    9844:	ea000031 	b	9910 <sockmsg_string+0x14c>
    9848:	e59f30d0 	ldr	r3, [pc, #208]	; 9920 <sockmsg_string+0x15c>
    984c:	e50b3014 	str	r3, [fp, -#20]
    9850:	ea00002e 	b	9910 <sockmsg_string+0x14c>
    9854:	e59f30c8 	ldr	r3, [pc, #200]	; 9924 <sockmsg_string+0x160>
    9858:	e50b3014 	str	r3, [fp, -#20]
    985c:	ea00002b 	b	9910 <sockmsg_string+0x14c>
    9860:	e59f30c0 	ldr	r3, [pc, #192]	; 9928 <sockmsg_string+0x164>
    9864:	e50b3014 	str	r3, [fp, -#20]
    9868:	ea000028 	b	9910 <sockmsg_string+0x14c>
    986c:	e59f30b8 	ldr	r3, [pc, #184]	; 992c <sockmsg_string+0x168>
    9870:	e50b3014 	str	r3, [fp, -#20]
    9874:	ea000025 	b	9910 <sockmsg_string+0x14c>
    9878:	e59f30b0 	ldr	r3, [pc, #176]	; 9930 <sockmsg_string+0x16c>
    987c:	e50b3014 	str	r3, [fp, -#20]
    9880:	ea000022 	b	9910 <sockmsg_string+0x14c>
    9884:	e59f30a8 	ldr	r3, [pc, #168]	; 9934 <sockmsg_string+0x170>
    9888:	e50b3014 	str	r3, [fp, -#20]
    988c:	ea00001f 	b	9910 <sockmsg_string+0x14c>
    9890:	e59f30a0 	ldr	r3, [pc, #160]	; 9938 <sockmsg_string+0x174>
    9894:	e50b3014 	str	r3, [fp, -#20]
    9898:	ea00001c 	b	9910 <sockmsg_string+0x14c>
    989c:	e59f3098 	ldr	r3, [pc, #152]	; 993c <sockmsg_string+0x178>
    98a0:	e50b3014 	str	r3, [fp, -#20]
    98a4:	ea000019 	b	9910 <sockmsg_string+0x14c>
    98a8:	e59f3090 	ldr	r3, [pc, #144]	; 9940 <sockmsg_string+0x17c>
    98ac:	e50b3014 	str	r3, [fp, -#20]
    98b0:	ea000016 	b	9910 <sockmsg_string+0x14c>
    98b4:	e59f3088 	ldr	r3, [pc, #136]	; 9944 <sockmsg_string+0x180>
    98b8:	e50b3014 	str	r3, [fp, -#20]
    98bc:	ea000013 	b	9910 <sockmsg_string+0x14c>
    98c0:	e59f3080 	ldr	r3, [pc, #128]	; 9948 <sockmsg_string+0x184>
    98c4:	e50b3014 	str	r3, [fp, -#20]
    98c8:	ea000010 	b	9910 <sockmsg_string+0x14c>
    98cc:	e59f3078 	ldr	r3, [pc, #120]	; 994c <sockmsg_string+0x188>
    98d0:	e50b3014 	str	r3, [fp, -#20]
    98d4:	ea00000d 	b	9910 <sockmsg_string+0x14c>
    98d8:	e59f3070 	ldr	r3, [pc, #112]	; 9950 <sockmsg_string+0x18c>
    98dc:	e50b3014 	str	r3, [fp, -#20]
    98e0:	ea00000a 	b	9910 <sockmsg_string+0x14c>
    98e4:	e59f3068 	ldr	r3, [pc, #104]	; 9954 <sockmsg_string+0x190>
    98e8:	e50b3014 	str	r3, [fp, -#20]
    98ec:	ea000007 	b	9910 <sockmsg_string+0x14c>
    98f0:	e59f3060 	ldr	r3, [pc, #96]	; 9958 <sockmsg_string+0x194>
    98f4:	e50b3014 	str	r3, [fp, -#20]
    98f8:	ea000004 	b	9910 <sockmsg_string+0x14c>
    98fc:	e59f3058 	ldr	r3, [pc, #88]	; 995c <sockmsg_string+0x198>
    9900:	e50b3014 	str	r3, [fp, -#20]
    9904:	ea000001 	b	9910 <sockmsg_string+0x14c>
    9908:	e59f3050 	ldr	r3, [pc, #80]	; 9960 <sockmsg_string+0x19c>
    990c:	e50b3014 	str	r3, [fp, -#20]
    9910:	e51b0014 	ldr	r0, [fp, -#20]
    9914:	e91ba800 	ldmdb	fp, {fp, sp, pc}
    9918:	0001a86c 	andeq	sl, r1, ip, ror #16
    991c:	0001a874 	andeq	sl, r1, r4, ror r8
    9920:	0001a880 	andeq	sl, r1, r0, lsl #17
    9924:	0001a888 	andeq	sl, r1, r8, lsl #17
    9928:	0001a894 	muleq	r1, r4, r8
    992c:	0001a89c 	muleq	r1, ip, r8
    9930:	0001a8a4 	andeq	sl, r1, r4, lsr #17
    9934:	0001a8b8 	streqh	sl, [r1], -r8
    9938:	0001a8c8 	andeq	sl, r1, r8, asr #17
    993c:	0001a8d4 	ldreqd	sl, [r1], -r4
    9940:	0001a8dc 	ldreqd	sl, [r1], -ip
    9944:	0001a8ec 	andeq	sl, r1, ip, ror #17
    9948:	0001a8f4 	streqd	sl, [r1], -r4
    994c:	0001a8fc 	streqd	sl, [r1], -ip
    9950:	0001a900 	andeq	sl, r1, r0, lsl #18
    9954:	0001a90c 	andeq	sl, r1, ip, lsl #18
    9958:	0001a918 	andeq	sl, r1, r8, lsl r9
    995c:	0001a920 	andeq	sl, r1, r0, lsr #18
    9960:	0001a938 	andeq	sl, r1, r8, lsr r9

00009964 <trace>:
    9964:	e1a0c00d 	mov	ip, sp
    9968:	e92d000f 	stmdb	sp!, {r0, r1, r2, r3}
    996c:	e92dd800 	stmdb	sp!, {fp, ip, lr, pc}
    9970:	e24cb014 	sub	fp, ip, #20	; 0x14
    9974:	e24ddb01 	sub	sp, sp, #1024	; 0x400
    9978:	e24dd00c 	sub	sp, sp, #12	; 0xc
    997c:	e59f30b8 	ldr	r3, [pc, #184]	; 9a3c <trace+0xd8>
    9980:	e5933000 	ldr	r3, [r3]
    9984:	e3530000 	cmp	r3, #0	; 0x0
    9988:	aa000000 	bge	9990 <trace+0x2c>
    998c:	ea000029 	b	9a38 <trace+0xd4>
    9990:	e28b3008 	add	r3, fp, #8	; 0x8
    9994:	e50b3010 	str	r3, [fp, -#16]
    9998:	e24b3b01 	sub	r3, fp, #1024	; 0x400
    999c:	e243300c 	sub	r3, r3, #12	; 0xc
    99a0:	e2433008 	sub	r3, r3, #8	; 0x8
    99a4:	e1a00003 	mov	r0, r3
    99a8:	e3a01b01 	mov	r1, #1024	; 0x400
    99ac:	e59b2004 	ldr	r2, [fp, #4]
    99b0:	e51b3010 	ldr	r3, [fp, -#16]
    99b4:	ebfffe26 	bl	9254 <_init+0x154>
    99b8:	e1a03000 	mov	r3, r0
    99bc:	e50b3418 	str	r3, [fp, -#1048]
    99c0:	e51b3418 	ldr	r3, [fp, -#1048]
    99c4:	e3530b01 	cmp	r3, #1024	; 0x400
    99c8:	ca000008 	bgt	99f0 <trace+0x8c>
    99cc:	e59f2068 	ldr	r2, [pc, #104]	; 9a3c <trace+0xd8>
    99d0:	e24b3b01 	sub	r3, fp, #1024	; 0x400
    99d4:	e243300c 	sub	r3, r3, #12	; 0xc
    99d8:	e2433008 	sub	r3, r3, #8	; 0x8
    99dc:	e5920000 	ldr	r0, [r2]
    99e0:	e1a01003 	mov	r1, r3
    99e4:	e51b2418 	ldr	r2, [fp, -#1048]
    99e8:	ebfffde1 	bl	9174 <_init+0x74>
    99ec:	ea000011 	b	9a38 <trace+0xd4>
    99f0:	e28b3008 	add	r3, fp, #8	; 0x8
    99f4:	e50b3010 	str	r3, [fp, -#16]
    99f8:	e3a00000 	mov	r0, #0	; 0x0
    99fc:	e59b1004 	ldr	r1, [fp, #4]
    9a00:	e51b2010 	ldr	r2, [fp, -#16]
    9a04:	eb002514 	bl	12e5c <talloc_vasprintf>
    9a08:	e1a03000 	mov	r3, r0
    9a0c:	e50b3014 	str	r3, [fp, -#20]
    9a10:	e51b0014 	ldr	r0, [fp, -#20]
    9a14:	ebfffe6e 	bl	93d4 <_init+0x2d4>
    9a18:	e1a03000 	mov	r3, r0
    9a1c:	e1a02003 	mov	r2, r3
    9a20:	e59f3014 	ldr	r3, [pc, #20]	; 9a3c <trace+0xd8>
    9a24:	e5930000 	ldr	r0, [r3]
    9a28:	e51b1014 	ldr	r1, [fp, -#20]
    9a2c:	ebfffdd0 	bl	9174 <_init+0x74>
    9a30:	e51b0014 	ldr	r0, [fp, -#20]
    9a34:	eb00206f 	bl	11bf8 <talloc_free>
    9a38:	e91ba800 	ldmdb	fp, {fp, sp, pc}
    9a3c:	00024808 	andeq	r4, r2, r8, lsl #16

00009a40 <trace_io>:
    9a40:	e1a0c00d 	mov	ip, sp
    9a44:	e92dd800 	stmdb	sp!, {fp, ip, lr, pc}
    9a48:	e24cb004 	sub	fp, ip, #4	; 0x4
    9a4c:	e24dd034 	sub	sp, sp, #52	; 0x34
    9a50:	e50b0010 	str	r0, [fp, -#16]
    9a54:	e50b1014 	str	r1, [fp, -#20]
    9a58:	e50b2018 	str	r2, [fp, -#24]
    9a5c:	e59f3130 	ldr	r3, [pc, #304]	; 9b94 <trace_io+0x154>
    9a60:	e5933000 	ldr	r3, [r3]
    9a64:	e3530000 	cmp	r3, #0	; 0x0
    9a68:	aa000000 	bge	9a70 <trace_io+0x30>
    9a6c:	ea000047 	b	9b90 <trace_io+0x150>
    9a70:	e3a00000 	mov	r0, #0	; 0x0
    9a74:	ebfffe46 	bl	9394 <_init+0x294>
    9a78:	e1a03000 	mov	r3, r0
    9a7c:	e50b3020 	str	r3, [fp, -#32]
    9a80:	e24b3020 	sub	r3, fp, #32	; 0x20
    9a84:	e1a00003 	mov	r0, r3
    9a88:	ebfffdbd 	bl	9184 <_init+0x84>
    9a8c:	e1a03000 	mov	r3, r0
    9a90:	e50b3024 	str	r3, [fp, -#36]
    9a94:	e51b3018 	ldr	r3, [fp, -#24]
    9a98:	e5930010 	ldr	r0, [r3, #16]
    9a9c:	ebffff48 	bl	97c4 <sockmsg_string>
    9aa0:	e1a02000 	mov	r2, r0
    9aa4:	e51b3024 	ldr	r3, [fp, -#36]
    9aa8:	e5933014 	ldr	r3, [r3, #20]
    9aac:	e283ce76 	add	ip, r3, #1888	; 0x760
    9ab0:	e28cc00c 	add	ip, ip, #12	; 0xc
    9ab4:	e51b3024 	ldr	r3, [fp, -#36]
    9ab8:	e5933010 	ldr	r3, [r3, #16]
    9abc:	e2833001 	add	r3, r3, #1	; 0x1
    9ac0:	e58d3000 	str	r3, [sp]
    9ac4:	e51b3024 	ldr	r3, [fp, -#36]
    9ac8:	e593300c 	ldr	r3, [r3, #12]
    9acc:	e58d3004 	str	r3, [sp, #4]
    9ad0:	e51b3024 	ldr	r3, [fp, -#36]
    9ad4:	e5933008 	ldr	r3, [r3, #8]
    9ad8:	e58d3008 	str	r3, [sp, #8]
    9adc:	e51b3024 	ldr	r3, [fp, -#36]
    9ae0:	e5933004 	ldr	r3, [r3, #4]
    9ae4:	e58d300c 	str	r3, [sp, #12]
    9ae8:	e51b3024 	ldr	r3, [fp, -#36]
    9aec:	e5933000 	ldr	r3, [r3]
    9af0:	e58d3010 	str	r3, [sp, #16]
    9af4:	e58d2014 	str	r2, [sp, #20]
    9af8:	e59f0098 	ldr	r0, [pc, #152]	; 9b98 <trace_io+0x158>
    9afc:	e51b1014 	ldr	r1, [fp, -#20]
    9b00:	e51b2010 	ldr	r2, [fp, -#16]
    9b04:	e1a0300c 	mov	r3, ip
    9b08:	ebffff95 	bl	9964 <trace>
    9b0c:	e3a03000 	mov	r3, #0	; 0x0
    9b10:	e50b301c 	str	r3, [fp, -#28]
    9b14:	e51b3018 	ldr	r3, [fp, -#24]
    9b18:	e51b201c 	ldr	r2, [fp, -#28]
    9b1c:	e593301c 	ldr	r3, [r3, #28]
    9b20:	e1520003 	cmp	r2, r3
    9b24:	3a000000 	bcc	9b2c <trace_io+0xec>
    9b28:	ea000016 	b	9b88 <trace_io+0x148>
    9b2c:	e51b3018 	ldr	r3, [fp, -#24]
    9b30:	e5932020 	ldr	r2, [r3, #32]
    9b34:	e51b301c 	ldr	r3, [fp, -#28]
    9b38:	e0823003 	add	r3, r2, r3
    9b3c:	e5d33000 	ldrb	r3, [r3]
    9b40:	e3530000 	cmp	r3, #0	; 0x0
    9b44:	0a000006 	beq	9b64 <trace_io+0x124>
    9b48:	e51b3018 	ldr	r3, [fp, -#24]
    9b4c:	e5932020 	ldr	r2, [r3, #32]
    9b50:	e51b301c 	ldr	r3, [fp, -#28]
    9b54:	e0823003 	add	r3, r2, r3
    9b58:	e5d33000 	ldrb	r3, [r3]
    9b5c:	e50b3028 	str	r3, [fp, -#40]
    9b60:	ea000001 	b	9b6c <trace_io+0x12c>
    9b64:	e3a03020 	mov	r3, #32	; 0x20
    9b68:	e50b3028 	str	r3, [fp, -#40]
    9b6c:	e59f0028 	ldr	r0, [pc, #40]	; 9b9c <trace_io+0x15c>
    9b70:	e51b1028 	ldr	r1, [fp, -#40]
    9b74:	ebffff7a 	bl	9964 <trace>
    9b78:	e51b301c 	ldr	r3, [fp, -#28]
    9b7c:	e2833001 	add	r3, r3, #1	; 0x1
    9b80:	e50b301c 	str	r3, [fp, -#28]
    9b84:	eaffffe2 	b	9b14 <trace_io+0xd4>
    9b88:	e59f0010 	ldr	r0, [pc, #16]	; 9ba0 <trace_io+0x160>
    9b8c:	ebffff74 	bl	9964 <trace>
    9b90:	e91ba800 	ldmdb	fp, {fp, sp, pc}
    9b94:	00024808 	andeq	r4, r2, r8, lsl #16
    9b98:	0001a944 	andeq	sl, r1, r4, asr #18
    9b9c:	0001a96c 	andeq	sl, r1, ip, ror #18
    9ba0:	0001a970 	andeq	sl, r1, r0, ror r9

00009ba4 <trace_create>:
    9ba4:	e1a0c00d 	mov	ip, sp
    9ba8:	e92dd800 	stmdb	sp!, {fp, ip, lr, pc}
    9bac:	e24cb004 	sub	fp, ip, #4	; 0x4
    9bb0:	e24dd008 	sub	sp, sp, #8	; 0x8
    9bb4:	e50b0010 	str	r0, [fp, -#16]
    9bb8:	e50b1014 	str	r1, [fp, -#20]
    9bbc:	e59f000c 	ldr	r0, [pc, #12]	; 9bd0 <trace_create+0x2c>
    9bc0:	e51b1014 	ldr	r1, [fp, -#20]
    9bc4:	e51b2010 	ldr	r2, [fp, -#16]
    9bc8:	ebffff65 	bl	9964 <trace>
    9bcc:	e91ba800 	ldmdb	fp, {fp, sp, pc}
    9bd0:	0001a974 	andeq	sl, r1, r4, ror r9

00009bd4 <trace_destroy>:
    9bd4:	e1a0c00d 	mov	ip, sp
    9bd8:	e92dd800 	stmdb	sp!, {fp, ip, lr, pc}
    9bdc:	e24cb004 	sub	fp, ip, #4	; 0x4
    9be0:	e24dd008 	sub	sp, sp, #8	; 0x8
    9be4:	e50b0010 	str	r0, [fp, -#16]
    9be8:	e50b1014 	str	r1, [fp, -#20]
    9bec:	e59f000c 	ldr	r0, [pc, #12]	; 9c00 <trace_destroy+0x2c>
    9bf0:	e51b1014 	ldr	r1, [fp, -#20]
    9bf4:	e51b2010 	ldr	r2, [fp, -#16]
    9bf8:	ebffff59 	bl	9964 <trace>
    9bfc:	e91ba800 	ldmdb	fp, {fp, sp, pc}
    9c00:	0001a984 	andeq	sl, r1, r4, lsl #19

00009c04 <trigger_reopen_log>:
    9c04:	e1a0c00d 	mov	ip, sp
    9c08:	e92dd800 	stmdb	sp!, {fp, ip, lr, pc}
    9c0c:	e24cb004 	sub	fp, ip, #4	; 0x4
    9c10:	e24dd008 	sub	sp, sp, #8	; 0x8
    9c14:	e50b0010 	str	r0, [fp, -#16]
    9c18:	e3a03041 	mov	r3, #65	; 0x41
    9c1c:	e54b3011 	strb	r3, [fp, -#17]
    9c20:	e59f3014 	ldr	r3, [pc, #20]	; 9c3c <trigger_reopen_log+0x38>
    9c24:	e24b2011 	sub	r2, fp, #17	; 0x11
    9c28:	e5930004 	ldr	r0, [r3, #4]
    9c2c:	e1a01002 	mov	r1, r2
    9c30:	e3a02001 	mov	r2, #1	; 0x1
    9c34:	ebfffd4e 	bl	9174 <_init+0x74>
    9c38:	e91ba800 	ldmdb	fp, {fp, sp, pc}
    9c3c:	00024d1c 	andeq	r4, r2, ip, lsl sp

00009c40 <reopen_log>:
    9c40:	e1a0c00d 	mov	ip, sp
    9c44:	e92dd800 	stmdb	sp!, {fp, ip, lr, pc}
    9c48:	e24cb004 	sub	fp, ip, #4	; 0x4
    9c4c:	e59f306c 	ldr	r3, [pc, #108]	; 9cc0 <reopen_log+0x80>
    9c50:	e5933000 	ldr	r3, [r3]
    9c54:	e3530000 	cmp	r3, #0	; 0x0
    9c58:	0a000017 	beq	9cbc <reopen_log+0x7c>
    9c5c:	e59f3060 	ldr	r3, [pc, #96]	; 9cc4 <reopen_log+0x84>
    9c60:	e5933000 	ldr	r3, [r3]
    9c64:	e3530000 	cmp	r3, #0	; 0x0
    9c68:	da000002 	ble	9c78 <reopen_log+0x38>
    9c6c:	e59f3050 	ldr	r3, [pc, #80]	; 9cc4 <reopen_log+0x84>
    9c70:	e5930000 	ldr	r0, [r3]
    9c74:	ebfffd4a 	bl	91a4 <_init+0xa4>
    9c78:	e59f3040 	ldr	r3, [pc, #64]	; 9cc0 <reopen_log+0x80>
    9c7c:	e5930000 	ldr	r0, [r3]
    9c80:	e59f1040 	ldr	r1, [pc, #64]	; 9cc8 <reopen_log+0x88>
    9c84:	e3a02d06 	mov	r2, #384	; 0x180
    9c88:	ebfffe19 	bl	94f4 <_init+0x3f4>
    9c8c:	e1a02000 	mov	r2, r0
    9c90:	e59f302c 	ldr	r3, [pc, #44]	; 9cc4 <reopen_log+0x84>
    9c94:	e5832000 	str	r2, [r3]
    9c98:	e59f3024 	ldr	r3, [pc, #36]	; 9cc4 <reopen_log+0x84>
    9c9c:	e5933000 	ldr	r3, [r3]
    9ca0:	e3530000 	cmp	r3, #0	; 0x0
    9ca4:	aa000002 	bge	9cb4 <reopen_log+0x74>
    9ca8:	e59f001c 	ldr	r0, [pc, #28]	; 9ccc <reopen_log+0x8c>
    9cac:	ebfffd40 	bl	91b4 <_init+0xb4>
    9cb0:	ea000001 	b	9cbc <reopen_log+0x7c>
    9cb4:	e59f0014 	ldr	r0, [pc, #20]	; 9cd0 <reopen_log+0x90>
    9cb8:	ebffff29 	bl	9964 <trace>
    9cbc:	e91ba800 	ldmdb	fp, {fp, sp, pc}
    9cc0:	00024d18 	andeq	r4, r2, r8, lsl sp
    9cc4:	00024808 	andeq	r4, r2, r8, lsl #16
    9cc8:	00000441 	andeq	r0, r0, r1, asr #8
    9ccc:	0001a994 	muleq	r1, r4, r9
    9cd0:	0001a9b0 	streqh	sl, [r1], -r0

00009cd4 <write_messages>:
    9cd4:	e1a0c00d 	mov	ip, sp
    9cd8:	e92dd800 	stmdb	sp!, {fp, ip, lr, pc}
    9cdc:	e24cb004 	sub	fp, ip, #4	; 0x4
    9ce0:	e24dd020 	sub	sp, sp, #32	; 0x20
    9ce4:	e50b0010 	str	r0, [fp, -#16]
    9ce8:	e51b3010 	ldr	r3, [fp, -#16]
    9cec:	e2833018 	add	r3, r3, #24	; 0x18
    9cf0:	e50b301c 	str	r3, [fp, -#28]
    9cf4:	e51b001c 	ldr	r0, [fp, -#28]
    9cf8:	eb00124d 	bl	e634 <list_empty>
    9cfc:	e1a03000 	mov	r3, r0
    9d00:	e3530000 	cmp	r3, #0	; 0x0
    9d04:	1a000005 	bne	9d20 <write_messages+0x4c>
    9d08:	e51b301c 	ldr	r3, [fp, -#28]
    9d0c:	e5933000 	ldr	r3, [r3]
    9d10:	e50b3020 	str	r3, [fp, -#32]
    9d14:	e51b3020 	ldr	r3, [fp, -#32]
    9d18:	e50b3028 	str	r3, [fp, -#40]
    9d1c:	ea000001 	b	9d28 <write_messages+0x54>
    9d20:	e3a03000 	mov	r3, #0	; 0x0
    9d24:	e50b3028 	str	r3, [fp, -#40]
    9d28:	e51b3028 	ldr	r3, [fp, -#40]
    9d2c:	e50b3018 	str	r3, [fp, -#24]
    9d30:	e51b3018 	ldr	r3, [fp, -#24]
    9d34:	e3530000 	cmp	r3, #0	; 0x0
    9d38:	1a000002 	bne	9d48 <write_messages+0x74>
    9d3c:	e3a03001 	mov	r3, #1	; 0x1
    9d40:	e50b3024 	str	r3, [fp, -#36]
    9d44:	ea00007b 	b	9f38 <write_messages+0x264>
    9d48:	e51b3018 	ldr	r3, [fp, -#24]
    9d4c:	e5d33008 	ldrb	r3, [r3, #8]
    9d50:	e3530000 	cmp	r3, #0	; 0x0
    9d54:	0a000045 	beq	9e70 <write_messages+0x19c>
    9d58:	e59f31e0 	ldr	r3, [pc, #480]	; 9f40 <write_messages+0x26c>
    9d5c:	e5d33000 	ldrb	r3, [r3]
    9d60:	e3530000 	cmp	r3, #0	; 0x0
    9d64:	0a00000c 	beq	9d9c <write_messages+0xc8>
    9d68:	e51b3018 	ldr	r3, [fp, -#24]
    9d6c:	e5930010 	ldr	r0, [r3, #16]
    9d70:	ebfffe93 	bl	97c4 <sockmsg_string>
    9d74:	e1a02000 	mov	r2, r0
    9d78:	e51bc018 	ldr	ip, [fp, -#24]
    9d7c:	e51be018 	ldr	lr, [fp, -#24]
    9d80:	e51b3010 	ldr	r3, [fp, -#16]
    9d84:	e58d3000 	str	r3, [sp]
    9d88:	e59f01b4 	ldr	r0, [pc, #436]	; 9f44 <write_messages+0x270>
    9d8c:	e1a01002 	mov	r1, r2
    9d90:	e59c201c 	ldr	r2, [ip, #28]
    9d94:	e59e3020 	ldr	r3, [lr, #32]
    9d98:	eb0025dd 	bl	13514 <xprintf>
    9d9c:	e51b1010 	ldr	r1, [fp, -#16]
    9da0:	e51b3018 	ldr	r3, [fp, -#24]
    9da4:	e51b2018 	ldr	r2, [fp, -#24]
    9da8:	e593300c 	ldr	r3, [r3, #12]
    9dac:	e0823003 	add	r3, r2, r3
    9db0:	e2832010 	add	r2, r3, #16	; 0x10
    9db4:	e51b3018 	ldr	r3, [fp, -#24]
    9db8:	e593300c 	ldr	r3, [r3, #12]
    9dbc:	e2633010 	rsb	r3, r3, #16	; 0x10
    9dc0:	e591c03c 	ldr	ip, [r1, #60]
    9dc4:	e51b0010 	ldr	r0, [fp, -#16]
    9dc8:	e1a01002 	mov	r1, r2
    9dcc:	e1a02003 	mov	r2, r3
    9dd0:	e1a0e00f 	mov	lr, pc
    9dd4:	e1a0f00c 	mov	pc, ip
    9dd8:	e1a03000 	mov	r3, r0
    9ddc:	e50b3014 	str	r3, [fp, -#20]
    9de0:	e51b3014 	ldr	r3, [fp, -#20]
    9de4:	e3530000 	cmp	r3, #0	; 0x0
    9de8:	aa000002 	bge	9df8 <write_messages+0x124>
    9dec:	e3a03000 	mov	r3, #0	; 0x0
    9df0:	e50b3024 	str	r3, [fp, -#36]
    9df4:	ea00004f 	b	9f38 <write_messages+0x264>
    9df8:	e51b1018 	ldr	r1, [fp, -#24]
    9dfc:	e51b3018 	ldr	r3, [fp, -#24]
    9e00:	e593200c 	ldr	r2, [r3, #12]
    9e04:	e51b3014 	ldr	r3, [fp, -#20]
    9e08:	e0823003 	add	r3, r2, r3
    9e0c:	e581300c 	str	r3, [r1, #12]
    9e10:	e51b3018 	ldr	r3, [fp, -#24]
    9e14:	e593300c 	ldr	r3, [r3, #12]
    9e18:	e353000f 	cmp	r3, #15	; 0xf
    9e1c:	8a000002 	bhi	9e2c <write_messages+0x158>
    9e20:	e3a03001 	mov	r3, #1	; 0x1
    9e24:	e50b3024 	str	r3, [fp, -#36]
    9e28:	ea000042 	b	9f38 <write_messages+0x264>
    9e2c:	e51b2018 	ldr	r2, [fp, -#24]
    9e30:	e3a03000 	mov	r3, #0	; 0x0
    9e34:	e5c23008 	strb	r3, [r2, #8]
    9e38:	e51b2018 	ldr	r2, [fp, -#24]
    9e3c:	e3a03000 	mov	r3, #0	; 0x0
    9e40:	e582300c 	str	r3, [r2, #12]
    9e44:	e51b3018 	ldr	r3, [fp, -#24]
    9e48:	e593301c 	ldr	r3, [r3, #28]
    9e4c:	e3530000 	cmp	r3, #0	; 0x0
    9e50:	0a000006 	beq	9e70 <write_messages+0x19c>
    9e54:	e51b3010 	ldr	r3, [fp, -#16]
    9e58:	e5933030 	ldr	r3, [r3, #48]
    9e5c:	e3530000 	cmp	r3, #0	; 0x0
    9e60:	1a000002 	bne	9e70 <write_messages+0x19c>
    9e64:	e3a03001 	mov	r3, #1	; 0x1
    9e68:	e50b3024 	str	r3, [fp, -#36]
    9e6c:	ea000031 	b	9f38 <write_messages+0x264>
    9e70:	e51b0010 	ldr	r0, [fp, -#16]
    9e74:	e51b3018 	ldr	r3, [fp, -#24]
    9e78:	e51b2018 	ldr	r2, [fp, -#24]
    9e7c:	e5931020 	ldr	r1, [r3, #32]
    9e80:	e592300c 	ldr	r3, [r2, #12]
    9e84:	e081e003 	add	lr, r1, r3
    9e88:	e51b3018 	ldr	r3, [fp, -#24]
    9e8c:	e51b2018 	ldr	r2, [fp, -#24]
    9e90:	e593101c 	ldr	r1, [r3, #28]
    9e94:	e592300c 	ldr	r3, [r2, #12]
    9e98:	e0633001 	rsb	r3, r3, r1
    9e9c:	e590c03c 	ldr	ip, [r0, #60]
    9ea0:	e51b0010 	ldr	r0, [fp, -#16]
    9ea4:	e1a0100e 	mov	r1, lr
    9ea8:	e1a02003 	mov	r2, r3
    9eac:	e1a0e00f 	mov	lr, pc
    9eb0:	e1a0f00c 	mov	pc, ip
    9eb4:	e1a03000 	mov	r3, r0
    9eb8:	e50b3014 	str	r3, [fp, -#20]
    9ebc:	e51b3014 	ldr	r3, [fp, -#20]
    9ec0:	e3530000 	cmp	r3, #0	; 0x0
    9ec4:	aa000002 	bge	9ed4 <write_messages+0x200>
    9ec8:	e3a03000 	mov	r3, #0	; 0x0
    9ecc:	e50b3024 	str	r3, [fp, -#36]
    9ed0:	ea000018 	b	9f38 <write_messages+0x264>
    9ed4:	e51b1018 	ldr	r1, [fp, -#24]
    9ed8:	e51b3018 	ldr	r3, [fp, -#24]
    9edc:	e593200c 	ldr	r2, [r3, #12]
    9ee0:	e51b3014 	ldr	r3, [fp, -#20]
    9ee4:	e0823003 	add	r3, r2, r3
    9ee8:	e581300c 	str	r3, [r1, #12]
    9eec:	e51b3018 	ldr	r3, [fp, -#24]
    9ef0:	e51b2018 	ldr	r2, [fp, -#24]
    9ef4:	e593100c 	ldr	r1, [r3, #12]
    9ef8:	e592301c 	ldr	r3, [r2, #28]
    9efc:	e1510003 	cmp	r1, r3
    9f00:	0a000002 	beq	9f10 <write_messages+0x23c>
    9f04:	e3a03001 	mov	r3, #1	; 0x1
    9f08:	e50b3024 	str	r3, [fp, -#36]
    9f0c:	ea000009 	b	9f38 <write_messages+0x264>
    9f10:	e51b0010 	ldr	r0, [fp, -#16]
    9f14:	e59f102c 	ldr	r1, [pc, #44]	; 9f48 <write_messages+0x274>
    9f18:	e51b2018 	ldr	r2, [fp, -#24]
    9f1c:	ebfffec7 	bl	9a40 <trace_io>
    9f20:	e51b0018 	ldr	r0, [fp, -#24]
    9f24:	eb0011af 	bl	e5e8 <list_del>
    9f28:	e51b0018 	ldr	r0, [fp, -#24]
    9f2c:	eb001f31 	bl	11bf8 <talloc_free>
    9f30:	e3a03001 	mov	r3, #1	; 0x1
    9f34:	e50b3024 	str	r3, [fp, -#36]
    9f38:	e51b0024 	ldr	r0, [fp, -#36]
    9f3c:	e91ba800 	ldmdb	fp, {fp, sp, pc}
    9f40:	00024d14 	andeq	r4, r2, r4, lsl sp
    9f44:	0001a9b8 	streqh	sl, [r1], -r8
    9f48:	0001a9dc 	ldreqd	sl, [r1], -ip

00009f4c <destroy_conn>:
    9f4c:	e1a0c00d 	mov	ip, sp
    9f50:	e92dd800 	stmdb	sp!, {fp, ip, lr, pc}
    9f54:	e24cb004 	sub	fp, ip, #4	; 0x4
    9f58:	e24dd09c 	sub	sp, sp, #156	; 0x9c
    9f5c:	e50b0010 	str	r0, [fp, -#16]
    9f60:	e51b3010 	ldr	r3, [fp, -#16]
    9f64:	e50b3014 	str	r3, [fp, -#20]
    9f68:	e51b3014 	ldr	r3, [fp, -#20]
    9f6c:	e5933030 	ldr	r3, [r3, #48]
    9f70:	e3530000 	cmp	r3, #0	; 0x0
    9f74:	1a00004f 	bne	a0b8 <destroy_conn+0x16c>
    9f78:	e24b3094 	sub	r3, fp, #148	; 0x94
    9f7c:	e50b30a4 	str	r3, [fp, -#164]
    9f80:	e3a03000 	mov	r3, #0	; 0x0
    9f84:	e50b30a0 	str	r3, [fp, -#160]
    9f88:	e51b30a0 	ldr	r3, [fp, -#160]
    9f8c:	e353001f 	cmp	r3, #31	; 0x1f
    9f90:	9a000000 	bls	9f98 <destroy_conn+0x4c>
    9f94:	ea000007 	b	9fb8 <destroy_conn+0x6c>
    9f98:	e51b10a4 	ldr	r1, [fp, -#164]
    9f9c:	e51b20a0 	ldr	r2, [fp, -#160]
    9fa0:	e3a03000 	mov	r3, #0	; 0x0
    9fa4:	e7813102 	str	r3, [r1, r2, lsl #2]
    9fa8:	e51b30a0 	ldr	r3, [fp, -#160]
    9fac:	e2833001 	add	r3, r3, #1	; 0x1
    9fb0:	e50b30a0 	str	r3, [fp, -#160]
    9fb4:	eafffff3 	b	9f88 <destroy_conn+0x3c>
    9fb8:	e51b3014 	ldr	r3, [fp, -#20]
    9fbc:	e5933008 	ldr	r3, [r3, #8]
    9fc0:	e1a012a3 	mov	r1, r3, lsr #5
    9fc4:	e3e02087 	mvn	r2, #135	; 0x87
    9fc8:	e1a03001 	mov	r3, r1
    9fcc:	e1a03103 	mov	r3, r3, lsl #2
    9fd0:	e24b000c 	sub	r0, fp, #12	; 0xc
    9fd4:	e0833000 	add	r3, r3, r0
    9fd8:	e0830002 	add	r0, r3, r2
    9fdc:	e3e02087 	mvn	r2, #135	; 0x87
    9fe0:	e1a03001 	mov	r3, r1
    9fe4:	e1a03103 	mov	r3, r3, lsl #2
    9fe8:	e24b100c 	sub	r1, fp, #12	; 0xc
    9fec:	e0833001 	add	r3, r3, r1
    9ff0:	e0831002 	add	r1, r3, r2
    9ff4:	e51b3014 	ldr	r3, [fp, -#20]
    9ff8:	e5933008 	ldr	r3, [r3, #8]
    9ffc:	e203201f 	and	r2, r3, #31	; 0x1f
    a000:	e3a03001 	mov	r3, #1	; 0x1
    a004:	e1a02213 	mov	r2, r3, lsl r2
    a008:	e5913000 	ldr	r3, [r1]
    a00c:	e1833002 	orr	r3, r3, r2
    a010:	e5803000 	str	r3, [r0]
    a014:	e3e0308f 	mvn	r3, #143	; 0x8f
    a018:	e24b200c 	sub	r2, fp, #12	; 0xc
    a01c:	e0821003 	add	r1, r2, r3
    a020:	e3e0308f 	mvn	r3, #143	; 0x8f
    a024:	e24b000c 	sub	r0, fp, #12	; 0xc
    a028:	e0802003 	add	r2, r0, r3
    a02c:	e3a03000 	mov	r3, #0	; 0x0
    a030:	e5823004 	str	r3, [r2, #4]
    a034:	e3a03000 	mov	r3, #0	; 0x0
    a038:	e5813000 	str	r3, [r1]
    a03c:	e51b3014 	ldr	r3, [fp, -#20]
    a040:	e2833018 	add	r3, r3, #24	; 0x18
    a044:	e1a00003 	mov	r0, r3
    a048:	eb001179 	bl	e634 <list_empty>
    a04c:	e1a03000 	mov	r3, r0
    a050:	e3530000 	cmp	r3, #0	; 0x0
    a054:	1a000014 	bne	a0ac <destroy_conn+0x160>
    a058:	e51b3014 	ldr	r3, [fp, -#20]
    a05c:	e5933008 	ldr	r3, [r3, #8]
    a060:	e2832001 	add	r2, r3, #1	; 0x1
    a064:	e24bc094 	sub	ip, fp, #148	; 0x94
    a068:	e24b309c 	sub	r3, fp, #156	; 0x9c
    a06c:	e58d3000 	str	r3, [sp]
    a070:	e1a00002 	mov	r0, r2
    a074:	e3a01000 	mov	r1, #0	; 0x0
    a078:	e1a0200c 	mov	r2, ip
    a07c:	e3a03000 	mov	r3, #0	; 0x0
    a080:	ebfffc6f 	bl	9244 <_init+0x144>
    a084:	e1a03000 	mov	r3, r0
    a088:	e3530001 	cmp	r3, #1	; 0x1
    a08c:	0a000000 	beq	a094 <destroy_conn+0x148>
    a090:	ea000005 	b	a0ac <destroy_conn+0x160>
    a094:	e51b0014 	ldr	r0, [fp, -#20]
    a098:	ebffff0d 	bl	9cd4 <write_messages>
    a09c:	e1a03000 	mov	r3, r0
    a0a0:	e20330ff 	and	r3, r3, #255	; 0xff
    a0a4:	e3530000 	cmp	r3, #0	; 0x0
    a0a8:	1affffe3 	bne	a03c <destroy_conn+0xf0>
    a0ac:	e51b3014 	ldr	r3, [fp, -#20]
    a0b0:	e5930008 	ldr	r0, [r3, #8]
    a0b4:	ebfffc3a 	bl	91a4 <_init+0xa4>
    a0b8:	e51b0014 	ldr	r0, [fp, -#20]
    a0bc:	eb001149 	bl	e5e8 <list_del>
    a0c0:	e51b0014 	ldr	r0, [fp, -#20]
    a0c4:	e59f100c 	ldr	r1, [pc, #12]	; a0d8 <destroy_conn+0x18c>
    a0c8:	ebfffec1 	bl	9bd4 <trace_destroy>
    a0cc:	e3a03000 	mov	r3, #0	; 0x0
    a0d0:	e1a00003 	mov	r0, r3
    a0d4:	e91ba800 	ldmdb	fp, {fp, sp, pc}
    a0d8:	0001a9e0 	andeq	sl, r1, r0, ror #19

0000a0dc <set_fd>:
    a0dc:	e1a0c00d 	mov	ip, sp
    a0e0:	e92dd800 	stmdb	sp!, {fp, ip, lr, pc}
    a0e4:	e24cb004 	sub	fp, ip, #4	; 0x4
    a0e8:	e24dd00c 	sub	sp, sp, #12	; 0xc
    a0ec:	e50b0010 	str	r0, [fp, -#16]
    a0f0:	e50b1014 	str	r1, [fp, -#20]
    a0f4:	e50b2018 	str	r2, [fp, -#24]
    a0f8:	e51b3010 	ldr	r3, [fp, -#16]
    a0fc:	e3530000 	cmp	r3, #0	; 0x0
    a100:	aa000000 	bge	a108 <set_fd+0x2c>
    a104:	ea000012 	b	a154 <set_fd+0x78>
    a108:	e51bc014 	ldr	ip, [fp, -#20]
    a10c:	e51b3010 	ldr	r3, [fp, -#16]
    a110:	e1a002a3 	mov	r0, r3, lsr #5
    a114:	e51b1014 	ldr	r1, [fp, -#20]
    a118:	e51b3010 	ldr	r3, [fp, -#16]
    a11c:	e203201f 	and	r2, r3, #31	; 0x1f
    a120:	e3a03001 	mov	r3, #1	; 0x1
    a124:	e1a02213 	mov	r2, r3, lsl r2
    a128:	e7913100 	ldr	r3, [r1, r0, lsl #2]
    a12c:	e1833002 	orr	r3, r3, r2
    a130:	e78c3100 	str	r3, [ip, r0, lsl #2]
    a134:	e51b3018 	ldr	r3, [fp, -#24]
    a138:	e51b2010 	ldr	r2, [fp, -#16]
    a13c:	e5933000 	ldr	r3, [r3]
    a140:	e1520003 	cmp	r2, r3
    a144:	da000002 	ble	a154 <set_fd+0x78>
    a148:	e51b2018 	ldr	r2, [fp, -#24]
    a14c:	e51b3010 	ldr	r3, [fp, -#16]
    a150:	e5823000 	str	r3, [r2]
    a154:	e91ba800 	ldmdb	fp, {fp, sp, pc}

0000a158 <initialize_set>:
    a158:	e1a0c00d 	mov	ip, sp
    a15c:	e92dd800 	stmdb	sp!, {fp, ip, lr, pc}
    a160:	e24cb004 	sub	fp, ip, #4	; 0x4
    a164:	e24dd020 	sub	sp, sp, #32	; 0x20
    a168:	e50b0010 	str	r0, [fp, -#16]
    a16c:	e50b1014 	str	r1, [fp, -#20]
    a170:	e50b2018 	str	r2, [fp, -#24]
    a174:	e50b301c 	str	r3, [fp, -#28]
    a178:	e3e03000 	mvn	r3, #0	; 0x0
    a17c:	e50b3024 	str	r3, [fp, -#36]
    a180:	e51b3010 	ldr	r3, [fp, -#16]
    a184:	e50b302c 	str	r3, [fp, -#44]
    a188:	e3a03000 	mov	r3, #0	; 0x0
    a18c:	e50b3028 	str	r3, [fp, -#40]
    a190:	e51b3028 	ldr	r3, [fp, -#40]
    a194:	e353001f 	cmp	r3, #31	; 0x1f
    a198:	9a000000 	bls	a1a0 <initialize_set+0x48>
    a19c:	ea000007 	b	a1c0 <initialize_set+0x68>
    a1a0:	e51b102c 	ldr	r1, [fp, -#44]
    a1a4:	e51b2028 	ldr	r2, [fp, -#40]
    a1a8:	e3a03000 	mov	r3, #0	; 0x0
    a1ac:	e7813102 	str	r3, [r1, r2, lsl #2]
    a1b0:	e51b3028 	ldr	r3, [fp, -#40]
    a1b4:	e2833001 	add	r3, r3, #1	; 0x1
    a1b8:	e50b3028 	str	r3, [fp, -#40]
    a1bc:	eafffff3 	b	a190 <initialize_set+0x38>
    a1c0:	e51b3014 	ldr	r3, [fp, -#20]
    a1c4:	e50b3028 	str	r3, [fp, -#40]
    a1c8:	e3a03000 	mov	r3, #0	; 0x0
    a1cc:	e50b302c 	str	r3, [fp, -#44]
    a1d0:	e51b302c 	ldr	r3, [fp, -#44]
    a1d4:	e353001f 	cmp	r3, #31	; 0x1f
    a1d8:	9a000000 	bls	a1e0 <initialize_set+0x88>
    a1dc:	ea000007 	b	a200 <initialize_set+0xa8>
    a1e0:	e51b1028 	ldr	r1, [fp, -#40]
    a1e4:	e51b202c 	ldr	r2, [fp, -#44]
    a1e8:	e3a03000 	mov	r3, #0	; 0x0
    a1ec:	e7813102 	str	r3, [r1, r2, lsl #2]
    a1f0:	e51b302c 	ldr	r3, [fp, -#44]
    a1f4:	e2833001 	add	r3, r3, #1	; 0x1
    a1f8:	e50b302c 	str	r3, [fp, -#44]
    a1fc:	eafffff3 	b	a1d0 <initialize_set+0x78>
    a200:	e24b3024 	sub	r3, fp, #36	; 0x24
    a204:	e51b0018 	ldr	r0, [fp, -#24]
    a208:	e51b1010 	ldr	r1, [fp, -#16]
    a20c:	e1a02003 	mov	r2, r3
    a210:	ebffffb1 	bl	a0dc <set_fd>
    a214:	e24b3024 	sub	r3, fp, #36	; 0x24
    a218:	e51b001c 	ldr	r0, [fp, -#28]
    a21c:	e51b1010 	ldr	r1, [fp, -#16]
    a220:	e1a02003 	mov	r2, r3
    a224:	ebffffac 	bl	a0dc <set_fd>
    a228:	e59f30e4 	ldr	r3, [pc, #228]	; a314 <initialize_set+0x1bc>
    a22c:	e24b2024 	sub	r2, fp, #36	; 0x24
    a230:	e5930000 	ldr	r0, [r3]
    a234:	e51b1010 	ldr	r1, [fp, -#16]
    a238:	ebffffa7 	bl	a0dc <set_fd>
    a23c:	e59f30d4 	ldr	r3, [pc, #212]	; a318 <initialize_set+0x1c0>
    a240:	e24b2024 	sub	r2, fp, #36	; 0x24
    a244:	e5930000 	ldr	r0, [r3]
    a248:	e51b1010 	ldr	r1, [fp, -#16]
    a24c:	ebffffa2 	bl	a0dc <set_fd>
    a250:	e59f30c4 	ldr	r3, [pc, #196]	; a31c <initialize_set+0x1c4>
    a254:	e5933000 	ldr	r3, [r3]
    a258:	e50b302c 	str	r3, [fp, -#44]
    a25c:	e51b302c 	ldr	r3, [fp, -#44]
    a260:	e50b3020 	str	r3, [fp, -#32]
    a264:	e51b2020 	ldr	r2, [fp, -#32]
    a268:	e59f30ac 	ldr	r3, [pc, #172]	; a31c <initialize_set+0x1c4>
    a26c:	e1520003 	cmp	r2, r3
    a270:	1a000000 	bne	a278 <initialize_set+0x120>
    a274:	ea000023 	b	a308 <initialize_set+0x1b0>
    a278:	e51b3020 	ldr	r3, [fp, -#32]
    a27c:	e5933030 	ldr	r3, [r3, #48]
    a280:	e3530000 	cmp	r3, #0	; 0x0
    a284:	0a000000 	beq	a28c <initialize_set+0x134>
    a288:	ea000018 	b	a2f0 <initialize_set+0x198>
    a28c:	e51b3020 	ldr	r3, [fp, -#32]
    a290:	e24b2024 	sub	r2, fp, #36	; 0x24
    a294:	e5930008 	ldr	r0, [r3, #8]
    a298:	e51b1010 	ldr	r1, [fp, -#16]
    a29c:	ebffff8e 	bl	a0dc <set_fd>
    a2a0:	e51b3020 	ldr	r3, [fp, -#32]
    a2a4:	e2833018 	add	r3, r3, #24	; 0x18
    a2a8:	e1a00003 	mov	r0, r3
    a2ac:	eb0010e0 	bl	e634 <list_empty>
    a2b0:	e1a03000 	mov	r3, r0
    a2b4:	e3530000 	cmp	r3, #0	; 0x0
    a2b8:	1a00000c 	bne	a2f0 <initialize_set+0x198>
    a2bc:	e51bc014 	ldr	ip, [fp, -#20]
    a2c0:	e51b3020 	ldr	r3, [fp, -#32]
    a2c4:	e5933008 	ldr	r3, [r3, #8]
    a2c8:	e1a012a3 	mov	r1, r3, lsr #5
    a2cc:	e51b0014 	ldr	r0, [fp, -#20]
    a2d0:	e51b3020 	ldr	r3, [fp, -#32]
    a2d4:	e5933008 	ldr	r3, [r3, #8]
    a2d8:	e203201f 	and	r2, r3, #31	; 0x1f
    a2dc:	e3a03001 	mov	r3, #1	; 0x1
    a2e0:	e1a02213 	mov	r2, r3, lsl r2
    a2e4:	e7903101 	ldr	r3, [r0, r1, lsl #2]
    a2e8:	e1833002 	orr	r3, r3, r2
    a2ec:	e78c3101 	str	r3, [ip, r1, lsl #2]
    a2f0:	e51b3020 	ldr	r3, [fp, -#32]
    a2f4:	e5933000 	ldr	r3, [r3]
    a2f8:	e50b302c 	str	r3, [fp, -#44]
    a2fc:	e51b302c 	ldr	r3, [fp, -#44]
    a300:	e50b3020 	str	r3, [fp, -#32]
    a304:	eaffffd6 	b	a264 <initialize_set+0x10c>
    a308:	e51b3024 	ldr	r3, [fp, -#36]
    a30c:	e1a00003 	mov	r0, r3
    a310:	e91ba800 	ldmdb	fp, {fp, sp, pc}
    a314:	00024990 	muleq	r2, r0, r9
    a318:	00024d1c 	andeq	r4, r2, ip, lsl sp
    a31c:	00024800 	andeq	r4, r2, r0, lsl #16

0000a320 <destroy_fd>:
    a320:	e1a0c00d 	mov	ip, sp
    a324:	e92dd800 	stmdb	sp!, {fp, ip, lr, pc}
    a328:	e24cb004 	sub	fp, ip, #4	; 0x4
    a32c:	e24dd008 	sub	sp, sp, #8	; 0x8
    a330:	e50b0010 	str	r0, [fp, -#16]
    a334:	e51b3010 	ldr	r3, [fp, -#16]
    a338:	e50b3014 	str	r3, [fp, -#20]
    a33c:	e51b3014 	ldr	r3, [fp, -#20]
    a340:	e5930000 	ldr	r0, [r3]
    a344:	ebfffb96 	bl	91a4 <_init+0xa4>
    a348:	e3a03000 	mov	r3, #0	; 0x0
    a34c:	e1a00003 	mov	r0, r3
    a350:	e91ba800 	ldmdb	fp, {fp, sp, pc}

0000a354 <talloc_open>:
    a354:	e1a0c00d 	mov	ip, sp
    a358:	e92dd800 	stmdb	sp!, {fp, ip, lr, pc}
    a35c:	e24cb004 	sub	fp, ip, #4	; 0x4
    a360:	e24dd018 	sub	sp, sp, #24	; 0x18
    a364:	e50b0010 	str	r0, [fp, -#16]
    a368:	e50b1014 	str	r1, [fp, -#20]
    a36c:	e50b2018 	str	r2, [fp, -#24]
    a370:	e51b0010 	ldr	r0, [fp, -#16]
    a374:	e3a01004 	mov	r1, #4	; 0x4
    a378:	e59f2084 	ldr	r2, [pc, #132]	; a404 <talloc_open+0xb0>
    a37c:	eb001d66 	bl	1191c <talloc_named_const>
    a380:	e50b001c 	str	r0, [fp, -#28]
    a384:	e51b0010 	ldr	r0, [fp, -#16]
    a388:	e51b1014 	ldr	r1, [fp, -#20]
    a38c:	e51b2018 	ldr	r2, [fp, -#24]
    a390:	ebfffc57 	bl	94f4 <_init+0x3f4>
    a394:	e1a02000 	mov	r2, r0
    a398:	e51b301c 	ldr	r3, [fp, -#28]
    a39c:	e5832000 	str	r2, [r3]
    a3a0:	e51b301c 	ldr	r3, [fp, -#28]
    a3a4:	e5933000 	ldr	r3, [r3]
    a3a8:	e3530000 	cmp	r3, #0	; 0x0
    a3ac:	aa00000d 	bge	a3e8 <talloc_open+0x94>
    a3b0:	ebfffbb7 	bl	9294 <_init+0x194>
    a3b4:	e1a03000 	mov	r3, r0
    a3b8:	e5933000 	ldr	r3, [r3]
    a3bc:	e50b3020 	str	r3, [fp, -#32]
    a3c0:	e51b001c 	ldr	r0, [fp, -#28]
    a3c4:	eb001e0b 	bl	11bf8 <talloc_free>
    a3c8:	ebfffbb1 	bl	9294 <_init+0x194>
    a3cc:	e1a03000 	mov	r3, r0
    a3d0:	e1a02003 	mov	r2, r3
    a3d4:	e51b3020 	ldr	r3, [fp, -#32]
    a3d8:	e5823000 	str	r3, [r2]
    a3dc:	e3a03000 	mov	r3, #0	; 0x0
    a3e0:	e50b3024 	str	r3, [fp, -#36]
    a3e4:	ea000004 	b	a3fc <talloc_open+0xa8>
    a3e8:	e51b001c 	ldr	r0, [fp, -#28]
    a3ec:	e59f1014 	ldr	r1, [pc, #20]	; a408 <talloc_open+0xb4>
    a3f0:	eb001b82 	bl	11200 <talloc_set_destructor>
    a3f4:	e51b301c 	ldr	r3, [fp, -#28]
    a3f8:	e50b3024 	str	r3, [fp, -#36]
    a3fc:	e51b0024 	ldr	r0, [fp, -#36]
    a400:	e91ba800 	ldmdb	fp, {fp, sp, pc}
    a404:	0001a9ec 	andeq	sl, r1, ip, ror #19
    a408:	0000a320 	andeq	sl, r0, r0, lsr #6

0000a40c <is_child>:
    a40c:	e1a0c00d 	mov	ip, sp
    a410:	e92dd800 	stmdb	sp!, {fp, ip, lr, pc}
    a414:	e24cb004 	sub	fp, ip, #4	; 0x4
    a418:	e24dd014 	sub	sp, sp, #20	; 0x14
    a41c:	e50b0010 	str	r0, [fp, -#16]
    a420:	e50b1014 	str	r1, [fp, -#20]
    a424:	e51b0014 	ldr	r0, [fp, -#20]
    a428:	ebfffbe9 	bl	93d4 <_init+0x2d4>
    a42c:	e1a03000 	mov	r3, r0
    a430:	e50b3018 	str	r3, [fp, -#24]
    a434:	e51b0014 	ldr	r0, [fp, -#20]
    a438:	e59f1094 	ldr	r1, [pc, #148]	; a4d4 <is_child+0xc8>
    a43c:	ebfffb54 	bl	9194 <_init+0x94>
    a440:	e1a03000 	mov	r3, r0
    a444:	e3530000 	cmp	r3, #0	; 0x0
    a448:	1a000002 	bne	a458 <is_child+0x4c>
    a44c:	e3a02001 	mov	r2, #1	; 0x1
    a450:	e50b201c 	str	r2, [fp, -#28]
    a454:	ea00001c 	b	a4cc <is_child+0xc0>
    a458:	e51b0010 	ldr	r0, [fp, -#16]
    a45c:	e51b1014 	ldr	r1, [fp, -#20]
    a460:	e51b2018 	ldr	r2, [fp, -#24]
    a464:	ebfffbea 	bl	9414 <_init+0x314>
    a468:	e1a03000 	mov	r3, r0
    a46c:	e3530000 	cmp	r3, #0	; 0x0
    a470:	0a000002 	beq	a480 <is_child+0x74>
    a474:	e3a03000 	mov	r3, #0	; 0x0
    a478:	e50b301c 	str	r3, [fp, -#28]
    a47c:	ea000012 	b	a4cc <is_child+0xc0>
    a480:	e3a03000 	mov	r3, #0	; 0x0
    a484:	e54b3020 	strb	r3, [fp, -#32]
    a488:	e51b2010 	ldr	r2, [fp, -#16]
    a48c:	e51b3018 	ldr	r3, [fp, -#24]
    a490:	e0823003 	add	r3, r2, r3
    a494:	e5d33000 	ldrb	r3, [r3]
    a498:	e353002f 	cmp	r3, #47	; 0x2f
    a49c:	0a000005 	beq	a4b8 <is_child+0xac>
    a4a0:	e51b2010 	ldr	r2, [fp, -#16]
    a4a4:	e51b3018 	ldr	r3, [fp, -#24]
    a4a8:	e0823003 	add	r3, r2, r3
    a4ac:	e5d33000 	ldrb	r3, [r3]
    a4b0:	e3530000 	cmp	r3, #0	; 0x0
    a4b4:	1a000001 	bne	a4c0 <is_child+0xb4>
    a4b8:	e3a03001 	mov	r3, #1	; 0x1
    a4bc:	e54b3020 	strb	r3, [fp, -#32]
    a4c0:	e55b2020 	ldrb	r2, [fp, -#32]
    a4c4:	e20230ff 	and	r3, r2, #255	; 0xff
    a4c8:	e50b301c 	str	r3, [fp, -#28]
    a4cc:	e51b001c 	ldr	r0, [fp, -#28]
    a4d0:	e91ba800 	ldmdb	fp, {fp, sp, pc}
    a4d4:	0001a9f0 	streqd	sl, [r1], -r0

0000a4d8 <read_node>:
    a4d8:	e1a0c00d 	mov	ip, sp
    a4dc:	e92dd810 	stmdb	sp!, {r4, fp, ip, lr, pc}
    a4e0:	e24cb004 	sub	fp, ip, #4	; 0x4
    a4e4:	e24dd02c 	sub	sp, sp, #44	; 0x2c
    a4e8:	e50b0014 	str	r0, [fp, -#20]
    a4ec:	e50b1018 	str	r1, [fp, -#24]
    a4f0:	e51b0014 	ldr	r0, [fp, -#20]
    a4f4:	ebfffc7a 	bl	96e4 <tdb_context>
    a4f8:	e1a03000 	mov	r3, r0
    a4fc:	e50b3034 	str	r3, [fp, -#52]
    a500:	e3e0300f 	mvn	r3, #15	; 0xf
    a504:	e24b1010 	sub	r1, fp, #16	; 0x10
    a508:	e0812003 	add	r2, r1, r3
    a50c:	e51b3018 	ldr	r3, [fp, -#24]
    a510:	e5823000 	str	r3, [r2]
    a514:	e3e0300f 	mvn	r3, #15	; 0xf
    a518:	e24b2010 	sub	r2, fp, #16	; 0x10
    a51c:	e0824003 	add	r4, r2, r3
    a520:	e51b0018 	ldr	r0, [fp, -#24]
    a524:	ebfffbaa 	bl	93d4 <_init+0x2d4>
    a528:	e1a03000 	mov	r3, r0
    a52c:	e5843004 	str	r3, [r4, #4]
    a530:	e3e03017 	mvn	r3, #23	; 0x17
    a534:	e24b1010 	sub	r1, fp, #16	; 0x10
    a538:	e0812003 	add	r2, r1, r3
    a53c:	e3e0300f 	mvn	r3, #15	; 0xf
    a540:	e24b1010 	sub	r1, fp, #16	; 0x10
    a544:	e0813003 	add	r3, r1, r3
    a548:	e1a00002 	mov	r0, r2
    a54c:	e51b1034 	ldr	r1, [fp, -#52]
    a550:	e893000c 	ldmia	r3, {r2, r3}
    a554:	eb002fb0 	bl	1641c <tdb_fetch>
    a558:	e3e03017 	mvn	r3, #23	; 0x17
    a55c:	e24b2010 	sub	r2, fp, #16	; 0x10
    a560:	e0823003 	add	r3, r2, r3
    a564:	e5933000 	ldr	r3, [r3]
    a568:	e3530000 	cmp	r3, #0	; 0x0
    a56c:	1a000024 	bne	a604 <read_node+0x12c>
    a570:	e51b0034 	ldr	r0, [fp, -#52]
    a574:	eb002f2e 	bl	16234 <tdb_error>
    a578:	e1a03000 	mov	r3, r0
    a57c:	e3530008 	cmp	r3, #8	; 0x8
    a580:	1a000005 	bne	a59c <read_node+0xc4>
    a584:	ebfffb42 	bl	9294 <_init+0x194>
    a588:	e1a03000 	mov	r3, r0
    a58c:	e1a02003 	mov	r2, r3
    a590:	e3a03002 	mov	r3, #2	; 0x2
    a594:	e5823000 	str	r3, [r2]
    a598:	ea000016 	b	a5f8 <read_node+0x120>
    a59c:	e51b0034 	ldr	r0, [fp, -#52]
    a5a0:	eb002f2c 	bl	16258 <tdb_errorstr>
    a5a4:	e1a03000 	mov	r3, r0
    a5a8:	e3a00000 	mov	r0, #0	; 0x0
    a5ac:	e59f115c 	ldr	r1, [pc, #348]	; a710 <read_node+0x238>
    a5b0:	e1a02003 	mov	r2, r3
    a5b4:	eb002258 	bl	12f1c <talloc_asprintf>
    a5b8:	e1a03000 	mov	r3, r0
    a5bc:	e50b3038 	str	r3, [fp, -#56]
    a5c0:	e59f014c 	ldr	r0, [pc, #332]	; a714 <read_node+0x23c>
    a5c4:	e51b1038 	ldr	r1, [fp, -#56]
    a5c8:	ebfffce5 	bl	9964 <trace>
    a5cc:	e3a00003 	mov	r0, #3	; 0x3
    a5d0:	e59f1140 	ldr	r1, [pc, #320]	; a718 <read_node+0x240>
    a5d4:	e51b2038 	ldr	r2, [fp, -#56]
    a5d8:	ebfffb55 	bl	9334 <_init+0x234>
    a5dc:	e51b0038 	ldr	r0, [fp, -#56]
    a5e0:	eb001d84 	bl	11bf8 <talloc_free>
    a5e4:	ebfffb2a 	bl	9294 <_init+0x194>
    a5e8:	e1a03000 	mov	r3, r0
    a5ec:	e1a02003 	mov	r2, r3
    a5f0:	e3a03005 	mov	r3, #5	; 0x5
    a5f4:	e5823000 	str	r3, [r2]
    a5f8:	e3a03000 	mov	r3, #0	; 0x0
    a5fc:	e50b303c 	str	r3, [fp, -#60]
    a600:	ea000040 	b	a708 <read_node+0x230>
    a604:	e51b0018 	ldr	r0, [fp, -#24]
    a608:	e3a01024 	mov	r1, #36	; 0x24
    a60c:	e59f2108 	ldr	r2, [pc, #264]	; a71c <read_node+0x244>
    a610:	eb001cc1 	bl	1191c <talloc_named_const>
    a614:	e50b0030 	str	r0, [fp, -#48]
    a618:	e51b4030 	ldr	r4, [fp, -#48]
    a61c:	e51b0030 	ldr	r0, [fp, -#48]
    a620:	e51b1018 	ldr	r1, [fp, -#24]
    a624:	eb002184 	bl	12c3c <talloc_strdup>
    a628:	e5840000 	str	r0, [r4]
    a62c:	e51b2030 	ldr	r2, [fp, -#48]
    a630:	e3a03000 	mov	r3, #0	; 0x0
    a634:	e5823008 	str	r3, [r2, #8]
    a638:	e51b4030 	ldr	r4, [fp, -#48]
    a63c:	e51b0014 	ldr	r0, [fp, -#20]
    a640:	ebfffc27 	bl	96e4 <tdb_context>
    a644:	e5840004 	str	r0, [r4, #4]
    a648:	e3e03017 	mvn	r3, #23	; 0x17
    a64c:	e24b1010 	sub	r1, fp, #16	; 0x10
    a650:	e0813003 	add	r3, r1, r3
    a654:	e51b0030 	ldr	r0, [fp, -#48]
    a658:	e5931000 	ldr	r1, [r3]
    a65c:	eb001e87 	bl	12080 <talloc_steal>
    a660:	e3e03017 	mvn	r3, #23	; 0x17
    a664:	e24b2010 	sub	r2, fp, #16	; 0x10
    a668:	e0823003 	add	r3, r2, r3
    a66c:	e5933000 	ldr	r3, [r3]
    a670:	e50b302c 	str	r3, [fp, -#44]
    a674:	e51b2030 	ldr	r2, [fp, -#48]
    a678:	e51b302c 	ldr	r3, [fp, -#44]
    a67c:	e5933000 	ldr	r3, [r3]
    a680:	e582300c 	str	r3, [r2, #12]
    a684:	e51b1030 	ldr	r1, [fp, -#48]
    a688:	e3a02004 	mov	r2, #4	; 0x4
    a68c:	e51b302c 	ldr	r3, [fp, -#44]
    a690:	e0823003 	add	r3, r2, r3
    a694:	e5933000 	ldr	r3, [r3]
    a698:	e5813014 	str	r3, [r1, #20]
    a69c:	e51b1030 	ldr	r1, [fp, -#48]
    a6a0:	e3a02008 	mov	r2, #8	; 0x8
    a6a4:	e51b302c 	ldr	r3, [fp, -#44]
    a6a8:	e0823003 	add	r3, r2, r3
    a6ac:	e5933000 	ldr	r3, [r3]
    a6b0:	e581301c 	str	r3, [r1, #28]
    a6b4:	e51b2030 	ldr	r2, [fp, -#48]
    a6b8:	e51b302c 	ldr	r3, [fp, -#44]
    a6bc:	e283300c 	add	r3, r3, #12	; 0xc
    a6c0:	e5823010 	str	r3, [r2, #16]
    a6c4:	e51b0030 	ldr	r0, [fp, -#48]
    a6c8:	e51b1030 	ldr	r1, [fp, -#48]
    a6cc:	e51b3030 	ldr	r3, [fp, -#48]
    a6d0:	e593300c 	ldr	r3, [r3, #12]
    a6d4:	e1a02183 	mov	r2, r3, lsl #3
    a6d8:	e5913010 	ldr	r3, [r1, #16]
    a6dc:	e0833002 	add	r3, r3, r2
    a6e0:	e5803018 	str	r3, [r0, #24]
    a6e4:	e51b0030 	ldr	r0, [fp, -#48]
    a6e8:	e51b3030 	ldr	r3, [fp, -#48]
    a6ec:	e51b2030 	ldr	r2, [fp, -#48]
    a6f0:	e5931018 	ldr	r1, [r3, #24]
    a6f4:	e5923014 	ldr	r3, [r2, #20]
    a6f8:	e0813003 	add	r3, r1, r3
    a6fc:	e5803020 	str	r3, [r0, #32]
    a700:	e51b3030 	ldr	r3, [fp, -#48]
    a704:	e50b303c 	str	r3, [fp, -#60]
    a708:	e51b003c 	ldr	r0, [fp, -#60]
    a70c:	e91ba810 	ldmdb	fp, {r4, fp, sp, pc}
    a710:	0001a9f4 	streqd	sl, [r1], -r4
    a714:	0001aa0c 	andeq	sl, r1, ip, lsl #20
    a718:	0001aa10 	andeq	sl, r1, r0, lsl sl
    a71c:	0001aa14 	andeq	sl, r1, r4, lsl sl

0000a720 <write_node>:
    a720:	e1a0c00d 	mov	ip, sp
    a724:	e92dd810 	stmdb	sp!, {r4, fp, ip, lr, pc}
    a728:	e24cb004 	sub	fp, ip, #4	; 0x4
    a72c:	e24dd028 	sub	sp, sp, #40	; 0x28
    a730:	e50b0014 	str	r0, [fp, -#20]
    a734:	e50b1018 	str	r1, [fp, -#24]
    a738:	e3e0300f 	mvn	r3, #15	; 0xf
    a73c:	e24b0010 	sub	r0, fp, #16	; 0x10
    a740:	e0802003 	add	r2, r0, r3
    a744:	e51b3018 	ldr	r3, [fp, -#24]
    a748:	e5933000 	ldr	r3, [r3]
    a74c:	e5823000 	str	r3, [r2]
    a750:	e3e0300f 	mvn	r3, #15	; 0xf
    a754:	e24b1010 	sub	r1, fp, #16	; 0x10
    a758:	e0814003 	add	r4, r1, r3
    a75c:	e51b3018 	ldr	r3, [fp, -#24]
    a760:	e5930000 	ldr	r0, [r3]
    a764:	ebfffb1a 	bl	93d4 <_init+0x2d4>
    a768:	e1a03000 	mov	r3, r0
    a76c:	e5843004 	str	r3, [r4, #4]
    a770:	e3e03017 	mvn	r3, #23	; 0x17
    a774:	e24b2010 	sub	r2, fp, #16	; 0x10
    a778:	e0821003 	add	r1, r2, r3
    a77c:	e51b3018 	ldr	r3, [fp, -#24]
    a780:	e593300c 	ldr	r3, [r3, #12]
    a784:	e1a02183 	mov	r2, r3, lsl #3
    a788:	e51b3018 	ldr	r3, [fp, -#24]
    a78c:	e5933014 	ldr	r3, [r3, #20]
    a790:	e0822003 	add	r2, r2, r3
    a794:	e51b3018 	ldr	r3, [fp, -#24]
    a798:	e593301c 	ldr	r3, [r3, #28]
    a79c:	e0823003 	add	r3, r2, r3
    a7a0:	e283300c 	add	r3, r3, #12	; 0xc
    a7a4:	e5813004 	str	r3, [r1, #4]
    a7a8:	e3e03017 	mvn	r3, #23	; 0x17
    a7ac:	e24b0010 	sub	r0, fp, #16	; 0x10
    a7b0:	e0804003 	add	r4, r0, r3
    a7b4:	e3e03017 	mvn	r3, #23	; 0x17
    a7b8:	e24b1010 	sub	r1, fp, #16	; 0x10
    a7bc:	e0813003 	add	r3, r1, r3
    a7c0:	e51b0018 	ldr	r0, [fp, -#24]
    a7c4:	e5931004 	ldr	r1, [r3, #4]
    a7c8:	e59f21ac 	ldr	r2, [pc, #428]	; a97c <write_node+0x25c>
    a7cc:	eb001c52 	bl	1191c <talloc_named_const>
    a7d0:	e5840000 	str	r0, [r4]
    a7d4:	e3e03017 	mvn	r3, #23	; 0x17
    a7d8:	e24b2010 	sub	r2, fp, #16	; 0x10
    a7dc:	e0823003 	add	r3, r2, r3
    a7e0:	e5932000 	ldr	r2, [r3]
    a7e4:	e51b3018 	ldr	r3, [fp, -#24]
    a7e8:	e593300c 	ldr	r3, [r3, #12]
    a7ec:	e5823000 	str	r3, [r2]
    a7f0:	e3e03017 	mvn	r3, #23	; 0x17
    a7f4:	e24b0010 	sub	r0, fp, #16	; 0x10
    a7f8:	e0803003 	add	r3, r0, r3
    a7fc:	e3a02004 	mov	r2, #4	; 0x4
    a800:	e5933000 	ldr	r3, [r3]
    a804:	e0822003 	add	r2, r2, r3
    a808:	e51b3018 	ldr	r3, [fp, -#24]
    a80c:	e5933014 	ldr	r3, [r3, #20]
    a810:	e5823000 	str	r3, [r2]
    a814:	e3e03017 	mvn	r3, #23	; 0x17
    a818:	e24b1010 	sub	r1, fp, #16	; 0x10
    a81c:	e0813003 	add	r3, r1, r3
    a820:	e3a02008 	mov	r2, #8	; 0x8
    a824:	e5933000 	ldr	r3, [r3]
    a828:	e0822003 	add	r2, r2, r3
    a82c:	e51b3018 	ldr	r3, [fp, -#24]
    a830:	e593301c 	ldr	r3, [r3, #28]
    a834:	e5823000 	str	r3, [r2]
    a838:	e3e03017 	mvn	r3, #23	; 0x17
    a83c:	e24b2010 	sub	r2, fp, #16	; 0x10
    a840:	e0823003 	add	r3, r2, r3
    a844:	e5933000 	ldr	r3, [r3]
    a848:	e283300c 	add	r3, r3, #12	; 0xc
    a84c:	e50b302c 	str	r3, [fp, -#44]
    a850:	e51b2018 	ldr	r2, [fp, -#24]
    a854:	e51b3018 	ldr	r3, [fp, -#24]
    a858:	e593300c 	ldr	r3, [r3, #12]
    a85c:	e1a03183 	mov	r3, r3, lsl #3
    a860:	e51b002c 	ldr	r0, [fp, -#44]
    a864:	e5921010 	ldr	r1, [r2, #16]
    a868:	e1a02003 	mov	r2, r3
    a86c:	ebfffb10 	bl	94b4 <_init+0x3b4>
    a870:	e51b3018 	ldr	r3, [fp, -#24]
    a874:	e593300c 	ldr	r3, [r3, #12]
    a878:	e1a02183 	mov	r2, r3, lsl #3
    a87c:	e51b302c 	ldr	r3, [fp, -#44]
    a880:	e0833002 	add	r3, r3, r2
    a884:	e50b302c 	str	r3, [fp, -#44]
    a888:	e51b3018 	ldr	r3, [fp, -#24]
    a88c:	e51b2018 	ldr	r2, [fp, -#24]
    a890:	e51b002c 	ldr	r0, [fp, -#44]
    a894:	e5931018 	ldr	r1, [r3, #24]
    a898:	e5922014 	ldr	r2, [r2, #20]
    a89c:	ebfffb04 	bl	94b4 <_init+0x3b4>
    a8a0:	e51b3018 	ldr	r3, [fp, -#24]
    a8a4:	e51b202c 	ldr	r2, [fp, -#44]
    a8a8:	e5933014 	ldr	r3, [r3, #20]
    a8ac:	e0823003 	add	r3, r2, r3
    a8b0:	e50b302c 	str	r3, [fp, -#44]
    a8b4:	e51b3018 	ldr	r3, [fp, -#24]
    a8b8:	e51b2018 	ldr	r2, [fp, -#24]
    a8bc:	e51b002c 	ldr	r0, [fp, -#44]
    a8c0:	e5931020 	ldr	r1, [r3, #32]
    a8c4:	e592201c 	ldr	r2, [r2, #28]
    a8c8:	ebfffaf9 	bl	94b4 <_init+0x3b4>
    a8cc:	e51b0014 	ldr	r0, [fp, -#20]
    a8d0:	ebfffb83 	bl	96e4 <tdb_context>
    a8d4:	e1a01000 	mov	r1, r0
    a8d8:	e3e0300f 	mvn	r3, #15	; 0xf
    a8dc:	e24b0010 	sub	r0, fp, #16	; 0x10
    a8e0:	e080c003 	add	ip, r0, r3
    a8e4:	e3e03017 	mvn	r3, #23	; 0x17
    a8e8:	e24b0010 	sub	r0, fp, #16	; 0x10
    a8ec:	e0802003 	add	r2, r0, r3
    a8f0:	e3a03001 	mov	r3, #1	; 0x1
    a8f4:	e58d3004 	str	r3, [sp, #4]
    a8f8:	e5923004 	ldr	r3, [r2, #4]
    a8fc:	e58d3000 	str	r3, [sp]
    a900:	e5923000 	ldr	r3, [r2]
    a904:	e1a00001 	mov	r0, r1
    a908:	e89c0006 	ldmia	ip, {r1, r2}
    a90c:	eb0033b8 	bl	177f4 <tdb_store>
    a910:	e1a03000 	mov	r3, r0
    a914:	e3530000 	cmp	r3, #0	; 0x0
    a918:	0a000013 	beq	a96c <write_node+0x24c>
    a91c:	e3e0300f 	mvn	r3, #15	; 0xf
    a920:	e24b1010 	sub	r1, fp, #16	; 0x10
    a924:	e0812003 	add	r2, r1, r3
    a928:	e3e03017 	mvn	r3, #23	; 0x17
    a92c:	e24b0010 	sub	r0, fp, #16	; 0x10
    a930:	e0803003 	add	r3, r0, r3
    a934:	e8930003 	ldmia	r3, {r0, r1}
    a938:	e88d0003 	stmia	sp, {r0, r1}
    a93c:	e51b0014 	ldr	r0, [fp, -#20]
    a940:	e59f1038 	ldr	r1, [pc, #56]	; a980 <write_node+0x260>
    a944:	e892000c 	ldmia	r2, {r2, r3}
    a948:	eb000bf1 	bl	d914 <corrupt>
    a94c:	ebfffa50 	bl	9294 <_init+0x194>
    a950:	e1a03000 	mov	r3, r0
    a954:	e1a02003 	mov	r2, r3
    a958:	e3a0301c 	mov	r3, #28	; 0x1c
    a95c:	e5823000 	str	r3, [r2]
    a960:	e3a01000 	mov	r1, #0	; 0x0
    a964:	e50b1030 	str	r1, [fp, -#48]
    a968:	ea000001 	b	a974 <write_node+0x254>
    a96c:	e3a02001 	mov	r2, #1	; 0x1
    a970:	e50b2030 	str	r2, [fp, -#48]
    a974:	e51b0030 	ldr	r0, [fp, -#48]
    a978:	e91ba810 	ldmdb	fp, {r4, fp, sp, pc}
    a97c:	0001aa20 	andeq	sl, r1, r0, lsr #20
    a980:	0001aa38 	andeq	sl, r1, r8, lsr sl

0000a984 <perm_for_conn>:
    a984:	e1a0c00d 	mov	ip, sp
    a988:	e92dd800 	stmdb	sp!, {fp, ip, lr, pc}
    a98c:	e24cb004 	sub	fp, ip, #4	; 0x4
    a990:	e24dd018 	sub	sp, sp, #24	; 0x18
    a994:	e50b0010 	str	r0, [fp, -#16]
    a998:	e50b1014 	str	r1, [fp, -#20]
    a99c:	e50b2018 	str	r2, [fp, -#24]
    a9a0:	e3a0300b 	mov	r3, #11	; 0xb
    a9a4:	e50b3020 	str	r3, [fp, -#32]
    a9a8:	e59f0100 	ldr	r0, [pc, #256]	; aab0 <perm_for_conn+0x12c>
    a9ac:	e59f1100 	ldr	r1, [pc, #256]	; aab4 <perm_for_conn+0x130>
    a9b0:	e59f2100 	ldr	r2, [pc, #256]	; aab8 <perm_for_conn+0x134>
    a9b4:	ebfffaae 	bl	9474 <_init+0x374>
    a9b8:	e51b3010 	ldr	r3, [fp, -#16]
    a9bc:	e5d33010 	ldrb	r3, [r3, #16]
    a9c0:	e3530000 	cmp	r3, #0	; 0x0
    a9c4:	1a000002 	bne	a9d4 <perm_for_conn+0x50>
    a9c8:	e51b3020 	ldr	r3, [fp, -#32]
    a9cc:	e3c33002 	bic	r3, r3, #2	; 0x2
    a9d0:	e50b3020 	str	r3, [fp, -#32]
    a9d4:	e59f00d4 	ldr	r0, [pc, #212]	; aab0 <perm_for_conn+0x12c>
    a9d8:	e59f10d4 	ldr	r1, [pc, #212]	; aab4 <perm_for_conn+0x130>
    a9dc:	e59f20d8 	ldr	r2, [pc, #216]	; aabc <perm_for_conn+0x138>
    a9e0:	ebfffaa3 	bl	9474 <_init+0x374>
    a9e4:	e51b3010 	ldr	r3, [fp, -#16]
    a9e8:	e593300c 	ldr	r3, [r3, #12]
    a9ec:	e3530000 	cmp	r3, #0	; 0x0
    a9f0:	0a000006 	beq	aa10 <perm_for_conn+0x8c>
    a9f4:	e51b3014 	ldr	r3, [fp, -#20]
    a9f8:	e51b2010 	ldr	r2, [fp, -#16]
    a9fc:	e5931000 	ldr	r1, [r3]
    aa00:	e592300c 	ldr	r3, [r2, #12]
    aa04:	e1510003 	cmp	r1, r3
    aa08:	0a000000 	beq	aa10 <perm_for_conn+0x8c>
    aa0c:	ea000003 	b	aa20 <perm_for_conn+0x9c>
    aa10:	e51b3020 	ldr	r3, [fp, -#32]
    aa14:	e203300b 	and	r3, r3, #11	; 0xb
    aa18:	e50b3024 	str	r3, [fp, -#36]
    aa1c:	ea000021 	b	aaa8 <perm_for_conn+0x124>
    aa20:	e3a03001 	mov	r3, #1	; 0x1
    aa24:	e50b301c 	str	r3, [fp, -#28]
    aa28:	e51b201c 	ldr	r2, [fp, -#28]
    aa2c:	e51b3018 	ldr	r3, [fp, -#24]
    aa30:	e1520003 	cmp	r2, r3
    aa34:	3a000000 	bcc	aa3c <perm_for_conn+0xb8>
    aa38:	ea000015 	b	aa94 <perm_for_conn+0x110>
    aa3c:	e51b301c 	ldr	r3, [fp, -#28]
    aa40:	e1a02183 	mov	r2, r3, lsl #3
    aa44:	e51b3014 	ldr	r3, [fp, -#20]
    aa48:	e0823003 	add	r3, r2, r3
    aa4c:	e51b2010 	ldr	r2, [fp, -#16]
    aa50:	e5931000 	ldr	r1, [r3]
    aa54:	e592300c 	ldr	r3, [r2, #12]
    aa58:	e1510003 	cmp	r1, r3
    aa5c:	1a000008 	bne	aa84 <perm_for_conn+0x100>
    aa60:	e51b301c 	ldr	r3, [fp, -#28]
    aa64:	e1a02183 	mov	r2, r3, lsl #3
    aa68:	e51b3014 	ldr	r3, [fp, -#20]
    aa6c:	e0823003 	add	r3, r2, r3
    aa70:	e5932004 	ldr	r2, [r3, #4]
    aa74:	e51b3020 	ldr	r3, [fp, -#32]
    aa78:	e0023003 	and	r3, r2, r3
    aa7c:	e50b3024 	str	r3, [fp, -#36]
    aa80:	ea000008 	b	aaa8 <perm_for_conn+0x124>
    aa84:	e51b301c 	ldr	r3, [fp, -#28]
    aa88:	e2833001 	add	r3, r3, #1	; 0x1
    aa8c:	e50b301c 	str	r3, [fp, -#28]
    aa90:	eaffffe4 	b	aa28 <perm_for_conn+0xa4>
    aa94:	e51b3014 	ldr	r3, [fp, -#20]
    aa98:	e5932004 	ldr	r2, [r3, #4]
    aa9c:	e51b3020 	ldr	r3, [fp, -#32]
    aaa0:	e0023003 	and	r3, r2, r3
    aaa4:	e50b3024 	str	r3, [fp, -#36]
    aaa8:	e51b0024 	ldr	r0, [fp, -#36]
    aaac:	e91ba800 	ldmdb	fp, {fp, sp, pc}
    aab0:	0001aa50 	andeq	sl, r1, r0, asr sl
    aab4:	0001aa58 	andeq	sl, r1, r8, asr sl
    aab8:	000001df 	ldreqd	r0, [r0], -pc
    aabc:	000001e2 	andeq	r0, r0, r2, ror #3

0000aac0 <get_parent>:
    aac0:	e1a0c00d 	mov	ip, sp
    aac4:	e92dd800 	stmdb	sp!, {fp, ip, lr, pc}
    aac8:	e24cb004 	sub	fp, ip, #4	; 0x4
    aacc:	e24dd00c 	sub	sp, sp, #12	; 0xc
    aad0:	e50b0010 	str	r0, [fp, -#16]
    aad4:	e51b3010 	ldr	r3, [fp, -#16]
    aad8:	e2833001 	add	r3, r3, #1	; 0x1
    aadc:	e1a00003 	mov	r0, r3
    aae0:	e3a0102f 	mov	r1, #47	; 0x2f
    aae4:	ebfffa76 	bl	94c4 <_init+0x3c4>
    aae8:	e1a03000 	mov	r3, r0
    aaec:	e50b3014 	str	r3, [fp, -#20]
    aaf0:	e51b3014 	ldr	r3, [fp, -#20]
    aaf4:	e3530000 	cmp	r3, #0	; 0x0
    aaf8:	1a000005 	bne	ab14 <get_parent+0x54>
    aafc:	e51b0010 	ldr	r0, [fp, -#16]
    ab00:	e59f103c 	ldr	r1, [pc, #60]	; ab44 <get_parent+0x84>
    ab04:	eb00204c 	bl	12c3c <talloc_strdup>
    ab08:	e1a03000 	mov	r3, r0
    ab0c:	e50b3018 	str	r3, [fp, -#24]
    ab10:	ea000009 	b	ab3c <get_parent+0x7c>
    ab14:	e51b2014 	ldr	r2, [fp, -#20]
    ab18:	e51b3010 	ldr	r3, [fp, -#16]
    ab1c:	e0633002 	rsb	r3, r3, r2
    ab20:	e51b0010 	ldr	r0, [fp, -#16]
    ab24:	e59f101c 	ldr	r1, [pc, #28]	; ab48 <get_parent+0x88>
    ab28:	e1a02003 	mov	r2, r3
    ab2c:	e51b3010 	ldr	r3, [fp, -#16]
    ab30:	eb0020f9 	bl	12f1c <talloc_asprintf>
    ab34:	e1a03000 	mov	r3, r0
    ab38:	e50b3018 	str	r3, [fp, -#24]
    ab3c:	e51b0018 	ldr	r0, [fp, -#24]
    ab40:	e91ba800 	ldmdb	fp, {fp, sp, pc}
    ab44:	0001a9f0 	streqd	sl, [r1], -r0
    ab48:	0001aa68 	andeq	sl, r1, r8, ror #20

0000ab4c <ask_parents>:
    ab4c:	e1a0c00d 	mov	ip, sp
    ab50:	e92dd800 	stmdb	sp!, {fp, ip, lr, pc}
    ab54:	e24cb004 	sub	fp, ip, #4	; 0x4
    ab58:	e24dd00c 	sub	sp, sp, #12	; 0xc
    ab5c:	e50b0010 	str	r0, [fp, -#16]
    ab60:	e50b1014 	str	r1, [fp, -#20]
    ab64:	e51b0014 	ldr	r0, [fp, -#20]
    ab68:	ebffffd4 	bl	aac0 <get_parent>
    ab6c:	e50b0014 	str	r0, [fp, -#20]
    ab70:	e51b0010 	ldr	r0, [fp, -#16]
    ab74:	e51b1014 	ldr	r1, [fp, -#20]
    ab78:	ebfffe56 	bl	a4d8 <read_node>
    ab7c:	e1a03000 	mov	r3, r0
    ab80:	e50b3018 	str	r3, [fp, -#24]
    ab84:	e51b3018 	ldr	r3, [fp, -#24]
    ab88:	e3530000 	cmp	r3, #0	; 0x0
    ab8c:	0a000000 	beq	ab94 <ask_parents+0x48>
    ab90:	ea000005 	b	abac <ask_parents+0x60>
    ab94:	e51b0014 	ldr	r0, [fp, -#20]
    ab98:	e59f1048 	ldr	r1, [pc, #72]	; abe8 <ask_parents+0x9c>
    ab9c:	ebfff97c 	bl	9194 <_init+0x94>
    aba0:	e1a03000 	mov	r3, r0
    aba4:	e3530000 	cmp	r3, #0	; 0x0
    aba8:	1affffed 	bne	ab64 <ask_parents+0x18>
    abac:	e51b3018 	ldr	r3, [fp, -#24]
    abb0:	e3530000 	cmp	r3, #0	; 0x0
    abb4:	1a000002 	bne	abc4 <ask_parents+0x78>
    abb8:	e51b0010 	ldr	r0, [fp, -#16]
    abbc:	e59f1028 	ldr	r1, [pc, #40]	; abec <ask_parents+0xa0>
    abc0:	eb000b53 	bl	d914 <corrupt>
    abc4:	e51b3018 	ldr	r3, [fp, -#24]
    abc8:	e51b2018 	ldr	r2, [fp, -#24]
    abcc:	e51b0010 	ldr	r0, [fp, -#16]
    abd0:	e5931010 	ldr	r1, [r3, #16]
    abd4:	e592200c 	ldr	r2, [r2, #12]
    abd8:	ebffff69 	bl	a984 <perm_for_conn>
    abdc:	e1a03000 	mov	r3, r0
    abe0:	e1a00003 	mov	r0, r3
    abe4:	e91ba800 	ldmdb	fp, {fp, sp, pc}
    abe8:	0001a9f0 	streqd	sl, [r1], -r0
    abec:	0001aa70 	andeq	sl, r1, r0, ror sl

0000abf0 <errno_from_parents>:
    abf0:	e1a0c00d 	mov	ip, sp
    abf4:	e92dd800 	stmdb	sp!, {fp, ip, lr, pc}
    abf8:	e24cb004 	sub	fp, ip, #4	; 0x4
    abfc:	e24dd014 	sub	sp, sp, #20	; 0x14
    ac00:	e50b0010 	str	r0, [fp, -#16]
    ac04:	e50b1014 	str	r1, [fp, -#20]
    ac08:	e50b2018 	str	r2, [fp, -#24]
    ac0c:	e50b301c 	str	r3, [fp, -#28]
    ac10:	e51b3018 	ldr	r3, [fp, -#24]
    ac14:	e353000c 	cmp	r3, #12	; 0xc
    ac18:	1a000002 	bne	ac28 <errno_from_parents+0x38>
    ac1c:	e51b3018 	ldr	r3, [fp, -#24]
    ac20:	e50b3020 	str	r3, [fp, -#32]
    ac24:	ea00000c 	b	ac5c <errno_from_parents+0x6c>
    ac28:	e51b0010 	ldr	r0, [fp, -#16]
    ac2c:	e51b1014 	ldr	r1, [fp, -#20]
    ac30:	ebffffc5 	bl	ab4c <ask_parents>
    ac34:	e1a03000 	mov	r3, r0
    ac38:	e51b201c 	ldr	r2, [fp, -#28]
    ac3c:	e0033002 	and	r3, r3, r2
    ac40:	e3530000 	cmp	r3, #0	; 0x0
    ac44:	0a000002 	beq	ac54 <errno_from_parents+0x64>
    ac48:	e51b3018 	ldr	r3, [fp, -#24]
    ac4c:	e50b3020 	str	r3, [fp, -#32]
    ac50:	ea000001 	b	ac5c <errno_from_parents+0x6c>
    ac54:	e3a0300d 	mov	r3, #13	; 0xd
    ac58:	e50b3020 	str	r3, [fp, -#32]
    ac5c:	e51b0020 	ldr	r0, [fp, -#32]
    ac60:	e91ba800 	ldmdb	fp, {fp, sp, pc}

0000ac64 <get_node>:
    ac64:	e1a0c00d 	mov	ip, sp
    ac68:	e92dd810 	stmdb	sp!, {r4, fp, ip, lr, pc}
    ac6c:	e24cb004 	sub	fp, ip, #4	; 0x4
    ac70:	e24dd014 	sub	sp, sp, #20	; 0x14
    ac74:	e50b0014 	str	r0, [fp, -#20]
    ac78:	e50b1018 	str	r1, [fp, -#24]
    ac7c:	e50b201c 	str	r2, [fp, -#28]
    ac80:	e51b3018 	ldr	r3, [fp, -#24]
    ac84:	e3530000 	cmp	r3, #0	; 0x0
    ac88:	0a000005 	beq	aca4 <get_node+0x40>
    ac8c:	e51b0018 	ldr	r0, [fp, -#24]
    ac90:	eb00013b 	bl	b184 <is_valid_nodename>
    ac94:	e1a03000 	mov	r3, r0
    ac98:	e20330ff 	and	r3, r3, #255	; 0xff
    ac9c:	e3530000 	cmp	r3, #0	; 0x0
    aca0:	1a000007 	bne	acc4 <get_node+0x60>
    aca4:	ebfff97a 	bl	9294 <_init+0x194>
    aca8:	e1a03000 	mov	r3, r0
    acac:	e1a02003 	mov	r2, r3
    acb0:	e3a03016 	mov	r3, #22	; 0x16
    acb4:	e5823000 	str	r3, [r2]
    acb8:	e3a03000 	mov	r3, #0	; 0x0
    acbc:	e50b3024 	str	r3, [fp, -#36]
    acc0:	ea000029 	b	ad6c <get_node+0x108>
    acc4:	e51b0014 	ldr	r0, [fp, -#20]
    acc8:	e51b1018 	ldr	r1, [fp, -#24]
    accc:	ebfffe01 	bl	a4d8 <read_node>
    acd0:	e1a03000 	mov	r3, r0
    acd4:	e50b3020 	str	r3, [fp, -#32]
    acd8:	e51b3020 	ldr	r3, [fp, -#32]
    acdc:	e3530000 	cmp	r3, #0	; 0x0
    ace0:	0a00000d 	beq	ad1c <get_node+0xb8>
    ace4:	e51b3020 	ldr	r3, [fp, -#32]
    ace8:	e51b2020 	ldr	r2, [fp, -#32]
    acec:	e51b0014 	ldr	r0, [fp, -#20]
    acf0:	e5931010 	ldr	r1, [r3, #16]
    acf4:	e592200c 	ldr	r2, [r2, #12]
    acf8:	ebffff21 	bl	a984 <perm_for_conn>
    acfc:	e1a02000 	mov	r2, r0
    ad00:	e51b301c 	ldr	r3, [fp, -#28]
    ad04:	e0022003 	and	r2, r2, r3
    ad08:	e51b301c 	ldr	r3, [fp, -#28]
    ad0c:	e1520003 	cmp	r2, r3
    ad10:	0a000001 	beq	ad1c <get_node+0xb8>
    ad14:	e3a03000 	mov	r3, #0	; 0x0
    ad18:	e50b3020 	str	r3, [fp, -#32]
    ad1c:	e59f0050 	ldr	r0, [pc, #80]	; ad74 <get_node+0x110>
    ad20:	e59f1050 	ldr	r1, [pc, #80]	; ad78 <get_node+0x114>
    ad24:	e59f2050 	ldr	r2, [pc, #80]	; ad7c <get_node+0x118>
    ad28:	ebfff9d1 	bl	9474 <_init+0x374>
    ad2c:	e51b3020 	ldr	r3, [fp, -#32]
    ad30:	e3530000 	cmp	r3, #0	; 0x0
    ad34:	1a00000a 	bne	ad64 <get_node+0x100>
    ad38:	ebfff955 	bl	9294 <_init+0x194>
    ad3c:	e1a03000 	mov	r3, r0
    ad40:	e51b0014 	ldr	r0, [fp, -#20]
    ad44:	e51b1018 	ldr	r1, [fp, -#24]
    ad48:	e5932000 	ldr	r2, [r3]
    ad4c:	e51b301c 	ldr	r3, [fp, -#28]
    ad50:	ebffffa6 	bl	abf0 <errno_from_parents>
    ad54:	e1a04000 	mov	r4, r0
    ad58:	ebfff94d 	bl	9294 <_init+0x194>
    ad5c:	e1a03000 	mov	r3, r0
    ad60:	e5834000 	str	r4, [r3]
    ad64:	e51b3020 	ldr	r3, [fp, -#32]
    ad68:	e50b3024 	str	r3, [fp, -#36]
    ad6c:	e51b0024 	ldr	r0, [fp, -#36]
    ad70:	e91ba810 	ldmdb	fp, {r4, fp, sp, pc}
    ad74:	0001aa50 	andeq	sl, r1, r0, asr sl
    ad78:	0001aa8c 	andeq	sl, r1, ip, lsl #21
    ad7c:	0000022a 	andeq	r0, r0, sl, lsr #4

0000ad80 <new_buffer>:
    ad80:	e1a0c00d 	mov	ip, sp
    ad84:	e92dd800 	stmdb	sp!, {fp, ip, lr, pc}
    ad88:	e24cb004 	sub	fp, ip, #4	; 0x4
    ad8c:	e24dd00c 	sub	sp, sp, #12	; 0xc
    ad90:	e50b0010 	str	r0, [fp, -#16]
    ad94:	e51b0010 	ldr	r0, [fp, -#16]
    ad98:	e3a01024 	mov	r1, #36	; 0x24
    ad9c:	e59f2038 	ldr	r2, [pc, #56]	; addc <new_buffer+0x5c>
    ada0:	eb001f76 	bl	12b80 <_talloc_zero>
    ada4:	e50b0014 	str	r0, [fp, -#20]
    ada8:	e51b3014 	ldr	r3, [fp, -#20]
    adac:	e3530000 	cmp	r3, #0	; 0x0
    adb0:	1a000002 	bne	adc0 <new_buffer+0x40>
    adb4:	e3a03000 	mov	r3, #0	; 0x0
    adb8:	e50b3018 	str	r3, [fp, -#24]
    adbc:	ea000004 	b	add4 <new_buffer+0x54>
    adc0:	e51b2014 	ldr	r2, [fp, -#20]
    adc4:	e3a03001 	mov	r3, #1	; 0x1
    adc8:	e5c23008 	strb	r3, [r2, #8]
    adcc:	e51b3014 	ldr	r3, [fp, -#20]
    add0:	e50b3018 	str	r3, [fp, -#24]
    add4:	e51b0018 	ldr	r0, [fp, -#24]
    add8:	e91ba800 	ldmdb	fp, {fp, sp, pc}
    addc:	0001aa98 	muleq	r1, r8, sl

0000ade0 <get_string>:
    ade0:	e1a0c00d 	mov	ip, sp
    ade4:	e92dd800 	stmdb	sp!, {fp, ip, lr, pc}
    ade8:	e24cb004 	sub	fp, ip, #4	; 0x4
    adec:	e24dd010 	sub	sp, sp, #16	; 0x10
    adf0:	e50b0010 	str	r0, [fp, -#16]
    adf4:	e50b1014 	str	r1, [fp, -#20]
    adf8:	e51b3010 	ldr	r3, [fp, -#16]
    adfc:	e51b2014 	ldr	r2, [fp, -#20]
    ae00:	e593300c 	ldr	r3, [r3, #12]
    ae04:	e1520003 	cmp	r2, r3
    ae08:	3a000002 	bcc	ae18 <get_string+0x38>
    ae0c:	e3a03000 	mov	r3, #0	; 0x0
    ae10:	e50b301c 	str	r3, [fp, -#28]
    ae14:	ea00001b 	b	ae88 <get_string+0xa8>
    ae18:	e51b3010 	ldr	r3, [fp, -#16]
    ae1c:	e5932020 	ldr	r2, [r3, #32]
    ae20:	e51b3014 	ldr	r3, [fp, -#20]
    ae24:	e0821003 	add	r1, r2, r3
    ae28:	e51b3010 	ldr	r3, [fp, -#16]
    ae2c:	e593200c 	ldr	r2, [r3, #12]
    ae30:	e51b3014 	ldr	r3, [fp, -#20]
    ae34:	e0633002 	rsb	r3, r3, r2
    ae38:	e1a00001 	mov	r0, r1
    ae3c:	e3a01000 	mov	r1, #0	; 0x0
    ae40:	e1a02003 	mov	r2, r3
    ae44:	ebfff916 	bl	92a4 <_init+0x1a4>
    ae48:	e1a03000 	mov	r3, r0
    ae4c:	e50b3018 	str	r3, [fp, -#24]
    ae50:	e51b3018 	ldr	r3, [fp, -#24]
    ae54:	e3530000 	cmp	r3, #0	; 0x0
    ae58:	1a000002 	bne	ae68 <get_string+0x88>
    ae5c:	e3a03000 	mov	r3, #0	; 0x0
    ae60:	e50b301c 	str	r3, [fp, -#28]
    ae64:	ea000007 	b	ae88 <get_string+0xa8>
    ae68:	e51b3010 	ldr	r3, [fp, -#16]
    ae6c:	e5932020 	ldr	r2, [r3, #32]
    ae70:	e51b3014 	ldr	r3, [fp, -#20]
    ae74:	e0822003 	add	r2, r2, r3
    ae78:	e51b3018 	ldr	r3, [fp, -#24]
    ae7c:	e0623003 	rsb	r3, r2, r3
    ae80:	e2833001 	add	r3, r3, #1	; 0x1
    ae84:	e50b301c 	str	r3, [fp, -#28]
    ae88:	e51b001c 	ldr	r0, [fp, -#28]
    ae8c:	e91ba800 	ldmdb	fp, {fp, sp, pc}

0000ae90 <get_strings>:
    ae90:	e1a0c00d 	mov	ip, sp
    ae94:	e92dd800 	stmdb	sp!, {fp, ip, lr, pc}
    ae98:	e24cb004 	sub	fp, ip, #4	; 0x4
    ae9c:	e24dd018 	sub	sp, sp, #24	; 0x18
    aea0:	e50b0010 	str	r0, [fp, -#16]
    aea4:	e50b1014 	str	r1, [fp, -#20]
    aea8:	e50b2018 	str	r2, [fp, -#24]
    aeac:	e3a03000 	mov	r3, #0	; 0x0
    aeb0:	e50b3020 	str	r3, [fp, -#32]
    aeb4:	e3a03000 	mov	r3, #0	; 0x0
    aeb8:	e50b301c 	str	r3, [fp, -#28]
    aebc:	e51b0010 	ldr	r0, [fp, -#16]
    aec0:	e51b101c 	ldr	r1, [fp, -#28]
    aec4:	ebffffc5 	bl	ade0 <get_string>
    aec8:	e1a03000 	mov	r3, r0
    aecc:	e50b3024 	str	r3, [fp, -#36]
    aed0:	e51b3024 	ldr	r3, [fp, -#36]
    aed4:	e3530000 	cmp	r3, #0	; 0x0
    aed8:	1a000000 	bne	aee0 <get_strings+0x50>
    aedc:	ea000014 	b	af34 <get_strings+0xa4>
    aee0:	e51b2020 	ldr	r2, [fp, -#32]
    aee4:	e51b3018 	ldr	r3, [fp, -#24]
    aee8:	e1520003 	cmp	r2, r3
    aeec:	2a000008 	bcs	af14 <get_strings+0x84>
    aef0:	e51b3020 	ldr	r3, [fp, -#32]
    aef4:	e1a02103 	mov	r2, r3, lsl #2
    aef8:	e51b3014 	ldr	r3, [fp, -#20]
    aefc:	e0821003 	add	r1, r2, r3
    af00:	e51b3010 	ldr	r3, [fp, -#16]
    af04:	e5932020 	ldr	r2, [r3, #32]
    af08:	e51b301c 	ldr	r3, [fp, -#28]
    af0c:	e0823003 	add	r3, r2, r3
    af10:	e5813000 	str	r3, [r1]
    af14:	e51b3020 	ldr	r3, [fp, -#32]
    af18:	e2833001 	add	r3, r3, #1	; 0x1
    af1c:	e50b3020 	str	r3, [fp, -#32]
    af20:	e51b201c 	ldr	r2, [fp, -#28]
    af24:	e51b3024 	ldr	r3, [fp, -#36]
    af28:	e0823003 	add	r3, r2, r3
    af2c:	e50b301c 	str	r3, [fp, -#28]
    af30:	eaffffe1 	b	aebc <get_strings+0x2c>
    af34:	e51b3020 	ldr	r3, [fp, -#32]
    af38:	e1a00003 	mov	r0, r3
    af3c:	e91ba800 	ldmdb	fp, {fp, sp, pc}

0000af40 <send_reply>:
    af40:	e1a0c00d 	mov	ip, sp
    af44:	e92dd810 	stmdb	sp!, {r4, fp, ip, lr, pc}
    af48:	e24cb004 	sub	fp, ip, #4	; 0x4
    af4c:	e24dd014 	sub	sp, sp, #20	; 0x14
    af50:	e50b0014 	str	r0, [fp, -#20]
    af54:	e50b1018 	str	r1, [fp, -#24]
    af58:	e50b201c 	str	r2, [fp, -#28]
    af5c:	e50b3020 	str	r3, [fp, -#32]
    af60:	e51b0014 	ldr	r0, [fp, -#20]
    af64:	ebffff85 	bl	ad80 <new_buffer>
    af68:	e1a03000 	mov	r3, r0
    af6c:	e50b3024 	str	r3, [fp, -#36]
    af70:	e51b4024 	ldr	r4, [fp, -#36]
    af74:	e51b0024 	ldr	r0, [fp, -#36]
    af78:	e3a01001 	mov	r1, #1	; 0x1
    af7c:	e51b2020 	ldr	r2, [fp, -#32]
    af80:	e59f3094 	ldr	r3, [pc, #148]	; b01c <send_reply+0xdc>
    af84:	eb002054 	bl	130dc <_talloc_array>
    af88:	e5840020 	str	r0, [r4, #32]
    af8c:	e51b3018 	ldr	r3, [fp, -#24]
    af90:	e353000f 	cmp	r3, #15	; 0xf
    af94:	0a000009 	beq	afc0 <send_reply+0x80>
    af98:	e51b3024 	ldr	r3, [fp, -#36]
    af9c:	e2832010 	add	r2, r3, #16	; 0x10
    afa0:	e51b3014 	ldr	r3, [fp, -#20]
    afa4:	e5933014 	ldr	r3, [r3, #20]
    afa8:	e2833010 	add	r3, r3, #16	; 0x10
    afac:	e1a00002 	mov	r0, r2
    afb0:	e1a01003 	mov	r1, r3
    afb4:	e3a02010 	mov	r2, #16	; 0x10
    afb8:	ebfff93d 	bl	94b4 <_init+0x3b4>
    afbc:	ea000005 	b	afd8 <send_reply+0x98>
    afc0:	e51b3024 	ldr	r3, [fp, -#36]
    afc4:	e2833010 	add	r3, r3, #16	; 0x10
    afc8:	e1a00003 	mov	r0, r3
    afcc:	e3a01000 	mov	r1, #0	; 0x0
    afd0:	e3a02010 	mov	r2, #16	; 0x10
    afd4:	ebfff966 	bl	9574 <_init+0x474>
    afd8:	e51b2024 	ldr	r2, [fp, -#36]
    afdc:	e51b3018 	ldr	r3, [fp, -#24]
    afe0:	e5823010 	str	r3, [r2, #16]
    afe4:	e51b2024 	ldr	r2, [fp, -#36]
    afe8:	e51b3020 	ldr	r3, [fp, -#32]
    afec:	e582301c 	str	r3, [r2, #28]
    aff0:	e51b3024 	ldr	r3, [fp, -#36]
    aff4:	e5930020 	ldr	r0, [r3, #32]
    aff8:	e51b101c 	ldr	r1, [fp, -#28]
    affc:	e51b2020 	ldr	r2, [fp, -#32]
    b000:	ebfff92b 	bl	94b4 <_init+0x3b4>
    b004:	e51b3014 	ldr	r3, [fp, -#20]
    b008:	e2833018 	add	r3, r3, #24	; 0x18
    b00c:	e51b0024 	ldr	r0, [fp, -#36]
    b010:	e1a01003 	mov	r1, r3
    b014:	eb000d67 	bl	e5b8 <list_add_tail>
    b018:	e91ba810 	ldmdb	fp, {r4, fp, sp, pc}
    b01c:	0001aab0 	streqh	sl, [r1], -r0

0000b020 <send_ack>:
    b020:	e1a0c00d 	mov	ip, sp
    b024:	e92dd800 	stmdb	sp!, {fp, ip, lr, pc}
    b028:	e24cb004 	sub	fp, ip, #4	; 0x4
    b02c:	e24dd008 	sub	sp, sp, #8	; 0x8
    b030:	e50b0010 	str	r0, [fp, -#16]
    b034:	e50b1014 	str	r1, [fp, -#20]
    b038:	e51b0010 	ldr	r0, [fp, -#16]
    b03c:	e51b1014 	ldr	r1, [fp, -#20]
    b040:	e59f2008 	ldr	r2, [pc, #8]	; b050 <send_ack+0x30>
    b044:	e3a03003 	mov	r3, #3	; 0x3
    b048:	ebffffbc 	bl	af40 <send_reply>
    b04c:	e91ba800 	ldmdb	fp, {fp, sp, pc}
    b050:	0001aab8 	streqh	sl, [r1], -r8

0000b054 <send_error>:
    b054:	e1a0c00d 	mov	ip, sp
    b058:	e92dd800 	stmdb	sp!, {fp, ip, lr, pc}
    b05c:	e24cb004 	sub	fp, ip, #4	; 0x4
    b060:	e24dd00c 	sub	sp, sp, #12	; 0xc
    b064:	e50b0010 	str	r0, [fp, -#16]
    b068:	e50b1014 	str	r1, [fp, -#20]
    b06c:	e3a03000 	mov	r3, #0	; 0x0
    b070:	e50b3018 	str	r3, [fp, -#24]
    b074:	e59f10a4 	ldr	r1, [pc, #164]	; b120 <send_error+0xcc>
    b078:	e51b3018 	ldr	r3, [fp, -#24]
    b07c:	e51b2014 	ldr	r2, [fp, -#20]
    b080:	e7913183 	ldr	r3, [r1, r3, lsl #3]
    b084:	e1520003 	cmp	r2, r3
    b088:	1a000000 	bne	b090 <send_error+0x3c>
    b08c:	ea00000d 	b	b0c8 <send_error+0x74>
    b090:	e51b3018 	ldr	r3, [fp, -#24]
    b094:	e353000d 	cmp	r3, #13	; 0xd
    b098:	1a000006 	bne	b0b8 <send_error+0x64>
    b09c:	e59f0080 	ldr	r0, [pc, #128]	; b124 <send_error+0xd0>
    b0a0:	e59f1080 	ldr	r1, [pc, #128]	; b128 <send_error+0xd4>
    b0a4:	e51b2014 	ldr	r2, [fp, -#20]
    b0a8:	eb002119 	bl	13514 <xprintf>
    b0ac:	e3a03000 	mov	r3, #0	; 0x0
    b0b0:	e50b3018 	str	r3, [fp, -#24]
    b0b4:	ea000003 	b	b0c8 <send_error+0x74>
    b0b8:	e51b3018 	ldr	r3, [fp, -#24]
    b0bc:	e2833001 	add	r3, r3, #1	; 0x1
    b0c0:	e50b3018 	str	r3, [fp, -#24]
    b0c4:	eaffffea 	b	b074 <send_error+0x20>
    b0c8:	e59f1050 	ldr	r1, [pc, #80]	; b120 <send_error+0xcc>
    b0cc:	e51b3018 	ldr	r3, [fp, -#24]
    b0d0:	e3a02004 	mov	r2, #4	; 0x4
    b0d4:	e1a03183 	mov	r3, r3, lsl #3
    b0d8:	e0833001 	add	r3, r3, r1
    b0dc:	e0833002 	add	r3, r3, r2
    b0e0:	e5930000 	ldr	r0, [r3]
    b0e4:	ebfff8ba 	bl	93d4 <_init+0x2d4>
    b0e8:	e1a03000 	mov	r3, r0
    b0ec:	e283c001 	add	ip, r3, #1	; 0x1
    b0f0:	e59f1028 	ldr	r1, [pc, #40]	; b120 <send_error+0xcc>
    b0f4:	e51b3018 	ldr	r3, [fp, -#24]
    b0f8:	e3a02004 	mov	r2, #4	; 0x4
    b0fc:	e1a03183 	mov	r3, r3, lsl #3
    b100:	e0833001 	add	r3, r3, r1
    b104:	e0833002 	add	r3, r3, r2
    b108:	e51b0010 	ldr	r0, [fp, -#16]
    b10c:	e3a01010 	mov	r1, #16	; 0x10
    b110:	e5932000 	ldr	r2, [r3]
    b114:	e1a0300c 	mov	r3, ip
    b118:	ebffff88 	bl	af40 <send_reply>
    b11c:	e91ba800 	ldmdb	fp, {fp, sp, pc}
    b120:	00024790 	muleq	r2, r0, r7
    b124:	0001aabc 	streqh	sl, [r1], -ip
    b128:	0001aae8 	andeq	sl, r1, r8, ror #21

0000b12c <valid_chars>:
    b12c:	e1a0c00d 	mov	ip, sp
    b130:	e92dd800 	stmdb	sp!, {fp, ip, lr, pc}
    b134:	e24cb004 	sub	fp, ip, #4	; 0x4
    b138:	e24dd008 	sub	sp, sp, #8	; 0x8
    b13c:	e50b0010 	str	r0, [fp, -#16]
    b140:	e51b0010 	ldr	r0, [fp, -#16]
    b144:	e59f1034 	ldr	r1, [pc, #52]	; b180 <valid_chars+0x54>
    b148:	ebfff8ed 	bl	9504 <_init+0x404>
    b14c:	e1a03000 	mov	r3, r0
    b150:	e50b3014 	str	r3, [fp, -#20]
    b154:	e51b0010 	ldr	r0, [fp, -#16]
    b158:	ebfff89d 	bl	93d4 <_init+0x2d4>
    b15c:	e1a03000 	mov	r3, r0
    b160:	e51b2014 	ldr	r2, [fp, -#20]
    b164:	e1520003 	cmp	r2, r3
    b168:	13a03000 	movne	r3, #0	; 0x0
    b16c:	03a03001 	moveq	r3, #1	; 0x1
    b170:	e50b3014 	str	r3, [fp, -#20]
    b174:	e51b3014 	ldr	r3, [fp, -#20]
    b178:	e1a00003 	mov	r0, r3
    b17c:	e91ba800 	ldmdb	fp, {fp, sp, pc}
    b180:	0001aaf4 	streqd	sl, [r1], -r4

0000b184 <is_valid_nodename>:
    b184:	e1a0c00d 	mov	ip, sp
    b188:	e92dd800 	stmdb	sp!, {fp, ip, lr, pc}
    b18c:	e24cb004 	sub	fp, ip, #4	; 0x4
    b190:	e24dd008 	sub	sp, sp, #8	; 0x8
    b194:	e50b0010 	str	r0, [fp, -#16]
    b198:	e51b0010 	ldr	r0, [fp, -#16]
    b19c:	e59f109c 	ldr	r1, [pc, #156]	; b240 <is_valid_nodename+0xbc>
    b1a0:	e3a02001 	mov	r2, #1	; 0x1
    b1a4:	ebfff89a 	bl	9414 <_init+0x314>
    b1a8:	e1a03000 	mov	r3, r0
    b1ac:	e3530000 	cmp	r3, #0	; 0x0
    b1b0:	0a000002 	beq	b1c0 <is_valid_nodename+0x3c>
    b1b4:	e3a03000 	mov	r3, #0	; 0x0
    b1b8:	e50b3014 	str	r3, [fp, -#20]
    b1bc:	ea00001d 	b	b238 <is_valid_nodename+0xb4>
    b1c0:	e51b0010 	ldr	r0, [fp, -#16]
    b1c4:	e59f1074 	ldr	r1, [pc, #116]	; b240 <is_valid_nodename+0xbc>
    b1c8:	eb000cbd 	bl	e4c4 <strends>
    b1cc:	e1a03000 	mov	r3, r0
    b1d0:	e20330ff 	and	r3, r3, #255	; 0xff
    b1d4:	e3530000 	cmp	r3, #0	; 0x0
    b1d8:	0a000008 	beq	b200 <is_valid_nodename+0x7c>
    b1dc:	e51b0010 	ldr	r0, [fp, -#16]
    b1e0:	e59f1058 	ldr	r1, [pc, #88]	; b240 <is_valid_nodename+0xbc>
    b1e4:	ebfff7ea 	bl	9194 <_init+0x94>
    b1e8:	e1a03000 	mov	r3, r0
    b1ec:	e3530000 	cmp	r3, #0	; 0x0
    b1f0:	0a000002 	beq	b200 <is_valid_nodename+0x7c>
    b1f4:	e3a03000 	mov	r3, #0	; 0x0
    b1f8:	e50b3014 	str	r3, [fp, -#20]
    b1fc:	ea00000d 	b	b238 <is_valid_nodename+0xb4>
    b200:	e51b0010 	ldr	r0, [fp, -#16]
    b204:	e59f1038 	ldr	r1, [pc, #56]	; b244 <is_valid_nodename+0xc0>
    b208:	ebfff86d 	bl	93c4 <_init+0x2c4>
    b20c:	e1a03000 	mov	r3, r0
    b210:	e3530000 	cmp	r3, #0	; 0x0
    b214:	0a000002 	beq	b224 <is_valid_nodename+0xa0>
    b218:	e3a03000 	mov	r3, #0	; 0x0
    b21c:	e50b3014 	str	r3, [fp, -#20]
    b220:	ea000004 	b	b238 <is_valid_nodename+0xb4>
    b224:	e51b0010 	ldr	r0, [fp, -#16]
    b228:	ebffffbf 	bl	b12c <valid_chars>
    b22c:	e1a03000 	mov	r3, r0
    b230:	e20330ff 	and	r3, r3, #255	; 0xff
    b234:	e50b3014 	str	r3, [fp, -#20]
    b238:	e51b0014 	ldr	r0, [fp, -#20]
    b23c:	e91ba800 	ldmdb	fp, {fp, sp, pc}
    b240:	0001a9f0 	streqd	sl, [r1], -r0
    b244:	0001ab38 	andeq	sl, r1, r8, lsr fp

0000b248 <onearg>:
    b248:	e1a0c00d 	mov	ip, sp
    b24c:	e92dd800 	stmdb	sp!, {fp, ip, lr, pc}
    b250:	e24cb004 	sub	fp, ip, #4	; 0x4
    b254:	e24dd008 	sub	sp, sp, #8	; 0x8
    b258:	e50b0010 	str	r0, [fp, -#16]
    b25c:	e51b3010 	ldr	r3, [fp, -#16]
    b260:	e593300c 	ldr	r3, [r3, #12]
    b264:	e3530000 	cmp	r3, #0	; 0x0
    b268:	0a000008 	beq	b290 <onearg+0x48>
    b26c:	e51b0010 	ldr	r0, [fp, -#16]
    b270:	e3a01000 	mov	r1, #0	; 0x0
    b274:	ebfffed9 	bl	ade0 <get_string>
    b278:	e1a03000 	mov	r3, r0
    b27c:	e51b2010 	ldr	r2, [fp, -#16]
    b280:	e592200c 	ldr	r2, [r2, #12]
    b284:	e1530002 	cmp	r3, r2
    b288:	1a000000 	bne	b290 <onearg+0x48>
    b28c:	ea000002 	b	b29c <onearg+0x54>
    b290:	e3a03000 	mov	r3, #0	; 0x0
    b294:	e50b3014 	str	r3, [fp, -#20]
    b298:	ea000002 	b	b2a8 <onearg+0x60>
    b29c:	e51b3010 	ldr	r3, [fp, -#16]
    b2a0:	e5933020 	ldr	r3, [r3, #32]
    b2a4:	e50b3014 	str	r3, [fp, -#20]
    b2a8:	e51b0014 	ldr	r0, [fp, -#20]
    b2ac:	e91ba800 	ldmdb	fp, {fp, sp, pc}

0000b2b0 <perms_to_strings>:
    b2b0:	e1a0c00d 	mov	ip, sp
    b2b4:	e92dd830 	stmdb	sp!, {r4, r5, fp, ip, lr, pc}
    b2b8:	e24cb004 	sub	fp, ip, #4	; 0x4
    b2bc:	e24dd02c 	sub	sp, sp, #44	; 0x2c
    b2c0:	e50b0018 	str	r0, [fp, -#24]
    b2c4:	e50b101c 	str	r1, [fp, -#28]
    b2c8:	e50b2020 	str	r2, [fp, -#32]
    b2cc:	e50b3024 	str	r3, [fp, -#36]
    b2d0:	e3a03000 	mov	r3, #0	; 0x0
    b2d4:	e50b302c 	str	r3, [fp, -#44]
    b2d8:	e51b2024 	ldr	r2, [fp, -#36]
    b2dc:	e3a03000 	mov	r3, #0	; 0x0
    b2e0:	e5823000 	str	r3, [r2]
    b2e4:	e3a03000 	mov	r3, #0	; 0x0
    b2e8:	e50b3028 	str	r3, [fp, -#40]
    b2ec:	e51b2028 	ldr	r2, [fp, -#40]
    b2f0:	e51b3020 	ldr	r3, [fp, -#32]
    b2f4:	e1520003 	cmp	r2, r3
    b2f8:	3a000000 	bcc	b300 <perms_to_strings+0x50>
    b2fc:	ea000036 	b	b3dc <perms_to_strings+0x12c>
    b300:	e51b3028 	ldr	r3, [fp, -#40]
    b304:	e1a02183 	mov	r2, r3, lsl #3
    b308:	e51b301c 	ldr	r3, [fp, -#28]
    b30c:	e0823003 	add	r3, r2, r3
    b310:	e24b2038 	sub	r2, fp, #56	; 0x38
    b314:	e1a00003 	mov	r0, r3
    b318:	e1a01002 	mov	r1, r2
    b31c:	eb0016b0 	bl	10de4 <xs_perm_to_string>
    b320:	e1a03000 	mov	r3, r0
    b324:	e20330ff 	and	r3, r3, #255	; 0xff
    b328:	e3530000 	cmp	r3, #0	; 0x0
    b32c:	1a000002 	bne	b33c <perms_to_strings+0x8c>
    b330:	e3a03000 	mov	r3, #0	; 0x0
    b334:	e50b303c 	str	r3, [fp, -#60]
    b338:	ea000029 	b	b3e4 <perms_to_strings+0x134>
    b33c:	e51b4024 	ldr	r4, [fp, -#36]
    b340:	e24b3038 	sub	r3, fp, #56	; 0x38
    b344:	e1a00003 	mov	r0, r3
    b348:	ebfff821 	bl	93d4 <_init+0x2d4>
    b34c:	e1a03000 	mov	r3, r0
    b350:	e1a02003 	mov	r2, r3
    b354:	e5943000 	ldr	r3, [r4]
    b358:	e0823003 	add	r3, r2, r3
    b35c:	e283c001 	add	ip, r3, #1	; 0x1
    b360:	e59f3084 	ldr	r3, [pc, #132]	; b3ec <perms_to_strings+0x13c>
    b364:	e58d3000 	str	r3, [sp]
    b368:	e51b0018 	ldr	r0, [fp, -#24]
    b36c:	e51b102c 	ldr	r1, [fp, -#44]
    b370:	e3a02001 	mov	r2, #1	; 0x1
    b374:	e1a0300c 	mov	r3, ip
    b378:	eb001f91 	bl	131c4 <_talloc_realloc_array>
    b37c:	e50b002c 	str	r0, [fp, -#44]
    b380:	e51b3024 	ldr	r3, [fp, -#36]
    b384:	e51b202c 	ldr	r2, [fp, -#44]
    b388:	e5933000 	ldr	r3, [r3]
    b38c:	e0823003 	add	r3, r2, r3
    b390:	e24b2038 	sub	r2, fp, #56	; 0x38
    b394:	e1a00003 	mov	r0, r3
    b398:	e1a01002 	mov	r1, r2
    b39c:	ebfff88c 	bl	95d4 <_init+0x4d4>
    b3a0:	e51b5024 	ldr	r5, [fp, -#36]
    b3a4:	e51b4024 	ldr	r4, [fp, -#36]
    b3a8:	e24b3038 	sub	r3, fp, #56	; 0x38
    b3ac:	e1a00003 	mov	r0, r3
    b3b0:	ebfff807 	bl	93d4 <_init+0x2d4>
    b3b4:	e1a03000 	mov	r3, r0
    b3b8:	e1a02003 	mov	r2, r3
    b3bc:	e5943000 	ldr	r3, [r4]
    b3c0:	e0823003 	add	r3, r2, r3
    b3c4:	e2833001 	add	r3, r3, #1	; 0x1
    b3c8:	e5853000 	str	r3, [r5]
    b3cc:	e51b3028 	ldr	r3, [fp, -#40]
    b3d0:	e2833001 	add	r3, r3, #1	; 0x1
    b3d4:	e50b3028 	str	r3, [fp, -#40]
    b3d8:	eaffffc3 	b	b2ec <perms_to_strings+0x3c>
    b3dc:	e51b302c 	ldr	r3, [fp, -#44]
    b3e0:	e50b303c 	str	r3, [fp, -#60]
    b3e4:	e51b003c 	ldr	r0, [fp, -#60]
    b3e8:	e91ba830 	ldmdb	fp, {r4, r5, fp, sp, pc}
    b3ec:	0001aab0 	streqh	sl, [r1], -r0

0000b3f0 <canonicalize>:
    b3f0:	e1a0c00d 	mov	ip, sp
    b3f4:	e92dd800 	stmdb	sp!, {fp, ip, lr, pc}
    b3f8:	e24cb004 	sub	fp, ip, #4	; 0x4
    b3fc:	e24dd010 	sub	sp, sp, #16	; 0x10
    b400:	e50b0010 	str	r0, [fp, -#16]
    b404:	e50b1014 	str	r1, [fp, -#20]
    b408:	e51b3014 	ldr	r3, [fp, -#20]
    b40c:	e3530000 	cmp	r3, #0	; 0x0
    b410:	0a000006 	beq	b430 <canonicalize+0x40>
    b414:	e51b0014 	ldr	r0, [fp, -#20]
    b418:	e59f1068 	ldr	r1, [pc, #104]	; b488 <canonicalize+0x98>
    b41c:	e3a02001 	mov	r2, #1	; 0x1
    b420:	ebfff7fb 	bl	9414 <_init+0x314>
    b424:	e1a03000 	mov	r3, r0
    b428:	e3530000 	cmp	r3, #0	; 0x0
    b42c:	1a000002 	bne	b43c <canonicalize+0x4c>
    b430:	e51b3014 	ldr	r3, [fp, -#20]
    b434:	e50b301c 	str	r3, [fp, -#28]
    b438:	ea000010 	b	b480 <canonicalize+0x90>
    b43c:	e51b0010 	ldr	r0, [fp, -#16]
    b440:	eb0011ff 	bl	fc44 <get_implicit_path>
    b444:	e1a03000 	mov	r3, r0
    b448:	e50b3018 	str	r3, [fp, -#24]
    b44c:	e51b3018 	ldr	r3, [fp, -#24]
    b450:	e3530000 	cmp	r3, #0	; 0x0
    b454:	0a000007 	beq	b478 <canonicalize+0x88>
    b458:	e51b0014 	ldr	r0, [fp, -#20]
    b45c:	e59f1028 	ldr	r1, [pc, #40]	; b48c <canonicalize+0x9c>
    b460:	e51b2018 	ldr	r2, [fp, -#24]
    b464:	e51b3014 	ldr	r3, [fp, -#20]
    b468:	eb001eab 	bl	12f1c <talloc_asprintf>
    b46c:	e1a03000 	mov	r3, r0
    b470:	e50b301c 	str	r3, [fp, -#28]
    b474:	ea000001 	b	b480 <canonicalize+0x90>
    b478:	e51b3014 	ldr	r3, [fp, -#20]
    b47c:	e50b301c 	str	r3, [fp, -#28]
    b480:	e51b001c 	ldr	r0, [fp, -#28]
    b484:	e91ba800 	ldmdb	fp, {fp, sp, pc}
    b488:	0001a9f0 	streqd	sl, [r1], -r0
    b48c:	0001ab3c 	andeq	sl, r1, ip, lsr fp

0000b490 <check_event_node>:
    b490:	e1a0c00d 	mov	ip, sp
    b494:	e92dd800 	stmdb	sp!, {fp, ip, lr, pc}
    b498:	e24cb004 	sub	fp, ip, #4	; 0x4
    b49c:	e24dd008 	sub	sp, sp, #8	; 0x8
    b4a0:	e50b0010 	str	r0, [fp, -#16]
    b4a4:	e51b3010 	ldr	r3, [fp, -#16]
    b4a8:	e3530000 	cmp	r3, #0	; 0x0
    b4ac:	0a000007 	beq	b4d0 <check_event_node+0x40>
    b4b0:	e51b0010 	ldr	r0, [fp, -#16]
    b4b4:	e59f1044 	ldr	r1, [pc, #68]	; b500 <check_event_node+0x70>
    b4b8:	e3a02001 	mov	r2, #1	; 0x1
    b4bc:	ebfff7d4 	bl	9414 <_init+0x314>
    b4c0:	e1a03000 	mov	r3, r0
    b4c4:	e3530000 	cmp	r3, #0	; 0x0
    b4c8:	1a000000 	bne	b4d0 <check_event_node+0x40>
    b4cc:	ea000007 	b	b4f0 <check_event_node+0x60>
    b4d0:	ebfff76f 	bl	9294 <_init+0x194>
    b4d4:	e1a03000 	mov	r3, r0
    b4d8:	e1a02003 	mov	r2, r3
    b4dc:	e3a03016 	mov	r3, #22	; 0x16
    b4e0:	e5823000 	str	r3, [r2]
    b4e4:	e3a03000 	mov	r3, #0	; 0x0
    b4e8:	e50b3014 	str	r3, [fp, -#20]
    b4ec:	ea000001 	b	b4f8 <check_event_node+0x68>
    b4f0:	e3a03001 	mov	r3, #1	; 0x1
    b4f4:	e50b3014 	str	r3, [fp, -#20]
    b4f8:	e51b0014 	ldr	r0, [fp, -#20]
    b4fc:	e91ba800 	ldmdb	fp, {fp, sp, pc}
    b500:	0001ab44 	andeq	sl, r1, r4, asr #22

0000b504 <send_directory>:
    b504:	e1a0c00d 	mov	ip, sp
    b508:	e92dd800 	stmdb	sp!, {fp, ip, lr, pc}
    b50c:	e24cb004 	sub	fp, ip, #4	; 0x4
    b510:	e24dd00c 	sub	sp, sp, #12	; 0xc
    b514:	e50b0010 	str	r0, [fp, -#16]
    b518:	e50b1014 	str	r1, [fp, -#20]
    b51c:	e51b0010 	ldr	r0, [fp, -#16]
    b520:	e51b1014 	ldr	r1, [fp, -#20]
    b524:	ebffffb1 	bl	b3f0 <canonicalize>
    b528:	e50b0014 	str	r0, [fp, -#20]
    b52c:	e51b0010 	ldr	r0, [fp, -#16]
    b530:	e51b1014 	ldr	r1, [fp, -#20]
    b534:	e3a02001 	mov	r2, #1	; 0x1
    b538:	ebfffdc9 	bl	ac64 <get_node>
    b53c:	e1a03000 	mov	r3, r0
    b540:	e50b3018 	str	r3, [fp, -#24]
    b544:	e51b3018 	ldr	r3, [fp, -#24]
    b548:	e3530000 	cmp	r3, #0	; 0x0
    b54c:	1a000005 	bne	b568 <send_directory+0x64>
    b550:	ebfff74f 	bl	9294 <_init+0x194>
    b554:	e1a03000 	mov	r3, r0
    b558:	e51b0010 	ldr	r0, [fp, -#16]
    b55c:	e5931000 	ldr	r1, [r3]
    b560:	ebfffebb 	bl	b054 <send_error>
    b564:	ea000006 	b	b584 <send_directory+0x80>
    b568:	e51b3018 	ldr	r3, [fp, -#24]
    b56c:	e51bc018 	ldr	ip, [fp, -#24]
    b570:	e51b0010 	ldr	r0, [fp, -#16]
    b574:	e3a01001 	mov	r1, #1	; 0x1
    b578:	e5932020 	ldr	r2, [r3, #32]
    b57c:	e59c301c 	ldr	r3, [ip, #28]
    b580:	ebfffe6e 	bl	af40 <send_reply>
    b584:	e91ba800 	ldmdb	fp, {fp, sp, pc}

0000b588 <do_read>:
    b588:	e1a0c00d 	mov	ip, sp
    b58c:	e92dd800 	stmdb	sp!, {fp, ip, lr, pc}
    b590:	e24cb004 	sub	fp, ip, #4	; 0x4
    b594:	e24dd00c 	sub	sp, sp, #12	; 0xc
    b598:	e50b0010 	str	r0, [fp, -#16]
    b59c:	e50b1014 	str	r1, [fp, -#20]
    b5a0:	e51b0010 	ldr	r0, [fp, -#16]
    b5a4:	e51b1014 	ldr	r1, [fp, -#20]
    b5a8:	ebffff90 	bl	b3f0 <canonicalize>
    b5ac:	e50b0014 	str	r0, [fp, -#20]
    b5b0:	e51b0010 	ldr	r0, [fp, -#16]
    b5b4:	e51b1014 	ldr	r1, [fp, -#20]
    b5b8:	e3a02001 	mov	r2, #1	; 0x1
    b5bc:	ebfffda8 	bl	ac64 <get_node>
    b5c0:	e1a03000 	mov	r3, r0
    b5c4:	e50b3018 	str	r3, [fp, -#24]
    b5c8:	e51b3018 	ldr	r3, [fp, -#24]
    b5cc:	e3530000 	cmp	r3, #0	; 0x0
    b5d0:	1a000005 	bne	b5ec <do_read+0x64>
    b5d4:	ebfff72e 	bl	9294 <_init+0x194>
    b5d8:	e1a03000 	mov	r3, r0
    b5dc:	e51b0010 	ldr	r0, [fp, -#16]
    b5e0:	e5931000 	ldr	r1, [r3]
    b5e4:	ebfffe9a 	bl	b054 <send_error>
    b5e8:	ea000006 	b	b608 <do_read+0x80>
    b5ec:	e51b3018 	ldr	r3, [fp, -#24]
    b5f0:	e51bc018 	ldr	ip, [fp, -#24]
    b5f4:	e51b0010 	ldr	r0, [fp, -#16]
    b5f8:	e3a01002 	mov	r1, #2	; 0x2
    b5fc:	e5932018 	ldr	r2, [r3, #24]
    b600:	e59c3014 	ldr	r3, [ip, #20]
    b604:	ebfffe4d 	bl	af40 <send_reply>
    b608:	e91ba800 	ldmdb	fp, {fp, sp, pc}

0000b60c <delete_node_single>:
    b60c:	e1a0c00d 	mov	ip, sp
    b610:	e92dd810 	stmdb	sp!, {r4, fp, ip, lr, pc}
    b614:	e24cb004 	sub	fp, ip, #4	; 0x4
    b618:	e24dd010 	sub	sp, sp, #16	; 0x10
    b61c:	e50b0014 	str	r0, [fp, -#20]
    b620:	e50b1018 	str	r1, [fp, -#24]
    b624:	e3e0300f 	mvn	r3, #15	; 0xf
    b628:	e24b1010 	sub	r1, fp, #16	; 0x10
    b62c:	e0812003 	add	r2, r1, r3
    b630:	e51b3018 	ldr	r3, [fp, -#24]
    b634:	e5933000 	ldr	r3, [r3]
    b638:	e5823000 	str	r3, [r2]
    b63c:	e3e0300f 	mvn	r3, #15	; 0xf
    b640:	e24b2010 	sub	r2, fp, #16	; 0x10
    b644:	e0824003 	add	r4, r2, r3
    b648:	e51b3018 	ldr	r3, [fp, -#24]
    b64c:	e5930000 	ldr	r0, [r3]
    b650:	ebfff75f 	bl	93d4 <_init+0x2d4>
    b654:	e1a03000 	mov	r3, r0
    b658:	e5843004 	str	r3, [r4, #4]
    b65c:	e51b0014 	ldr	r0, [fp, -#20]
    b660:	ebfff81f 	bl	96e4 <tdb_context>
    b664:	e1a02000 	mov	r2, r0
    b668:	e3e0300f 	mvn	r3, #15	; 0xf
    b66c:	e24b1010 	sub	r1, fp, #16	; 0x10
    b670:	e0813003 	add	r3, r1, r3
    b674:	e1a00002 	mov	r0, r2
    b678:	e8930006 	ldmia	r3, {r1, r2}
    b67c:	eb003041 	bl	17788 <tdb_delete>
    b680:	e1a03000 	mov	r3, r0
    b684:	e3530000 	cmp	r3, #0	; 0x0
    b688:	0a000004 	beq	b6a0 <delete_node_single+0x94>
    b68c:	e51b3018 	ldr	r3, [fp, -#24]
    b690:	e51b0014 	ldr	r0, [fp, -#20]
    b694:	e59f1008 	ldr	r1, [pc, #8]	; b6a4 <delete_node_single+0x98>
    b698:	e5932000 	ldr	r2, [r3]
    b69c:	eb00089c 	bl	d914 <corrupt>
    b6a0:	e91ba810 	ldmdb	fp, {r4, fp, sp, pc}
    b6a4:	0001ab48 	andeq	sl, r1, r8, asr #22

0000b6a8 <basename>:
    b6a8:	e1a0c00d 	mov	ip, sp
    b6ac:	e92dd800 	stmdb	sp!, {fp, ip, lr, pc}
    b6b0:	e24cb004 	sub	fp, ip, #4	; 0x4
    b6b4:	e24dd004 	sub	sp, sp, #4	; 0x4
    b6b8:	e50b0010 	str	r0, [fp, -#16]
    b6bc:	e51b0010 	ldr	r0, [fp, -#16]
    b6c0:	e3a0102f 	mov	r1, #47	; 0x2f
    b6c4:	ebfff77e 	bl	94c4 <_init+0x3c4>
    b6c8:	e1a03000 	mov	r3, r0
    b6cc:	e2833001 	add	r3, r3, #1	; 0x1
    b6d0:	e1a00003 	mov	r0, r3
    b6d4:	e91ba800 	ldmdb	fp, {fp, sp, pc}

0000b6d8 <construct_node>:
    b6d8:	e1a0c00d 	mov	ip, sp
    b6dc:	e92dd810 	stmdb	sp!, {r4, fp, ip, lr, pc}
    b6e0:	e24cb004 	sub	fp, ip, #4	; 0x4
    b6e4:	e24dd024 	sub	sp, sp, #36	; 0x24
    b6e8:	e50b0014 	str	r0, [fp, -#20]
    b6ec:	e50b1018 	str	r1, [fp, -#24]
    b6f0:	e51b0018 	ldr	r0, [fp, -#24]
    b6f4:	ebfffcf1 	bl	aac0 <get_parent>
    b6f8:	e1a03000 	mov	r3, r0
    b6fc:	e50b3030 	str	r3, [fp, -#48]
    b700:	e51b0014 	ldr	r0, [fp, -#20]
    b704:	e51b1030 	ldr	r1, [fp, -#48]
    b708:	ebfffb72 	bl	a4d8 <read_node>
    b70c:	e1a03000 	mov	r3, r0
    b710:	e50b3024 	str	r3, [fp, -#36]
    b714:	e51b3024 	ldr	r3, [fp, -#36]
    b718:	e3530000 	cmp	r3, #0	; 0x0
    b71c:	1a000004 	bne	b734 <construct_node+0x5c>
    b720:	e51b0014 	ldr	r0, [fp, -#20]
    b724:	e51b1030 	ldr	r1, [fp, -#48]
    b728:	ebffffea 	bl	b6d8 <construct_node>
    b72c:	e1a03000 	mov	r3, r0
    b730:	e50b3024 	str	r3, [fp, -#36]
    b734:	e51b3024 	ldr	r3, [fp, -#36]
    b738:	e3530000 	cmp	r3, #0	; 0x0
    b73c:	1a000002 	bne	b74c <construct_node+0x74>
    b740:	e3a03000 	mov	r3, #0	; 0x0
    b744:	e50b3034 	str	r3, [fp, -#52]
    b748:	ea000062 	b	b8d8 <construct_node+0x200>
    b74c:	e51b0018 	ldr	r0, [fp, -#24]
    b750:	ebffffd4 	bl	b6a8 <basename>
    b754:	e50b001c 	str	r0, [fp, -#28]
    b758:	e51b001c 	ldr	r0, [fp, -#28]
    b75c:	ebfff71c 	bl	93d4 <_init+0x2d4>
    b760:	e1a03000 	mov	r3, r0
    b764:	e2833001 	add	r3, r3, #1	; 0x1
    b768:	e50b3020 	str	r3, [fp, -#32]
    b76c:	e51b3024 	ldr	r3, [fp, -#36]
    b770:	e593201c 	ldr	r2, [r3, #28]
    b774:	e51b3020 	ldr	r3, [fp, -#32]
    b778:	e0823003 	add	r3, r2, r3
    b77c:	e51b0018 	ldr	r0, [fp, -#24]
    b780:	e3a01001 	mov	r1, #1	; 0x1
    b784:	e1a02003 	mov	r2, r3
    b788:	e59f3150 	ldr	r3, [pc, #336]	; b8e0 <construct_node+0x208>
    b78c:	eb001e52 	bl	130dc <_talloc_array>
    b790:	e50b002c 	str	r0, [fp, -#44]
    b794:	e51b3024 	ldr	r3, [fp, -#36]
    b798:	e51b2024 	ldr	r2, [fp, -#36]
    b79c:	e51b002c 	ldr	r0, [fp, -#44]
    b7a0:	e5931020 	ldr	r1, [r3, #32]
    b7a4:	e592201c 	ldr	r2, [r2, #28]
    b7a8:	ebfff741 	bl	94b4 <_init+0x3b4>
    b7ac:	e51b3024 	ldr	r3, [fp, -#36]
    b7b0:	e51b202c 	ldr	r2, [fp, -#44]
    b7b4:	e593301c 	ldr	r3, [r3, #28]
    b7b8:	e0823003 	add	r3, r2, r3
    b7bc:	e1a00003 	mov	r0, r3
    b7c0:	e51b101c 	ldr	r1, [fp, -#28]
    b7c4:	e51b2020 	ldr	r2, [fp, -#32]
    b7c8:	ebfff739 	bl	94b4 <_init+0x3b4>
    b7cc:	e51b2024 	ldr	r2, [fp, -#36]
    b7d0:	e51b302c 	ldr	r3, [fp, -#44]
    b7d4:	e5823020 	str	r3, [r2, #32]
    b7d8:	e51b1024 	ldr	r1, [fp, -#36]
    b7dc:	e51b3024 	ldr	r3, [fp, -#36]
    b7e0:	e593201c 	ldr	r2, [r3, #28]
    b7e4:	e51b3020 	ldr	r3, [fp, -#32]
    b7e8:	e0823003 	add	r3, r2, r3
    b7ec:	e581301c 	str	r3, [r1, #28]
    b7f0:	e51b0018 	ldr	r0, [fp, -#24]
    b7f4:	e3a01024 	mov	r1, #36	; 0x24
    b7f8:	e59f20e4 	ldr	r2, [pc, #228]	; b8e4 <construct_node+0x20c>
    b7fc:	eb001846 	bl	1191c <talloc_named_const>
    b800:	e50b0028 	str	r0, [fp, -#40]
    b804:	e51b4028 	ldr	r4, [fp, -#40]
    b808:	e51b0014 	ldr	r0, [fp, -#20]
    b80c:	ebfff7b4 	bl	96e4 <tdb_context>
    b810:	e5840004 	str	r0, [r4, #4]
    b814:	e51b4028 	ldr	r4, [fp, -#40]
    b818:	e51b0028 	ldr	r0, [fp, -#40]
    b81c:	e51b1018 	ldr	r1, [fp, -#24]
    b820:	eb001d05 	bl	12c3c <talloc_strdup>
    b824:	e5840000 	str	r0, [r4]
    b828:	e51b2028 	ldr	r2, [fp, -#40]
    b82c:	e51b3024 	ldr	r3, [fp, -#36]
    b830:	e593300c 	ldr	r3, [r3, #12]
    b834:	e582300c 	str	r3, [r2, #12]
    b838:	e51b4028 	ldr	r4, [fp, -#40]
    b83c:	e51b2024 	ldr	r2, [fp, -#36]
    b840:	e51b3028 	ldr	r3, [fp, -#40]
    b844:	e593300c 	ldr	r3, [r3, #12]
    b848:	e1a03183 	mov	r3, r3, lsl #3
    b84c:	e51b0028 	ldr	r0, [fp, -#40]
    b850:	e5921010 	ldr	r1, [r2, #16]
    b854:	e1a02003 	mov	r2, r3
    b858:	e59f3088 	ldr	r3, [pc, #136]	; b8e8 <construct_node+0x210>
    b85c:	eb001cde 	bl	12bdc <_talloc_memdup>
    b860:	e5840010 	str	r0, [r4, #16]
    b864:	e51b3014 	ldr	r3, [fp, -#20]
    b868:	e3530000 	cmp	r3, #0	; 0x0
    b86c:	0a000008 	beq	b894 <construct_node+0x1bc>
    b870:	e51b3014 	ldr	r3, [fp, -#20]
    b874:	e593300c 	ldr	r3, [r3, #12]
    b878:	e3530000 	cmp	r3, #0	; 0x0
    b87c:	0a000004 	beq	b894 <construct_node+0x1bc>
    b880:	e51b3028 	ldr	r3, [fp, -#40]
    b884:	e5932010 	ldr	r2, [r3, #16]
    b888:	e51b3014 	ldr	r3, [fp, -#20]
    b88c:	e593300c 	ldr	r3, [r3, #12]
    b890:	e5823000 	str	r3, [r2]
    b894:	e51b1028 	ldr	r1, [fp, -#40]
    b898:	e51b2028 	ldr	r2, [fp, -#40]
    b89c:	e3a03000 	mov	r3, #0	; 0x0
    b8a0:	e5823018 	str	r3, [r2, #24]
    b8a4:	e3a03000 	mov	r3, #0	; 0x0
    b8a8:	e5813020 	str	r3, [r1, #32]
    b8ac:	e51b1028 	ldr	r1, [fp, -#40]
    b8b0:	e51b2028 	ldr	r2, [fp, -#40]
    b8b4:	e3a03000 	mov	r3, #0	; 0x0
    b8b8:	e5823014 	str	r3, [r2, #20]
    b8bc:	e3a03000 	mov	r3, #0	; 0x0
    b8c0:	e581301c 	str	r3, [r1, #28]
    b8c4:	e51b2028 	ldr	r2, [fp, -#40]
    b8c8:	e51b3024 	ldr	r3, [fp, -#36]
    b8cc:	e5823008 	str	r3, [r2, #8]
    b8d0:	e51b3028 	ldr	r3, [fp, -#40]
    b8d4:	e50b3034 	str	r3, [fp, -#52]
    b8d8:	e51b0034 	ldr	r0, [fp, -#52]
    b8dc:	e91ba810 	ldmdb	fp, {r4, fp, sp, pc}
    b8e0:	0001aab0 	streqh	sl, [r1], -r0
    b8e4:	0001aa14 	andeq	sl, r1, r4, lsl sl
    b8e8:	0001ab60 	andeq	sl, r1, r0, ror #22

0000b8ec <destroy_node>:
    b8ec:	e1a0c00d 	mov	ip, sp
    b8f0:	e92dd810 	stmdb	sp!, {r4, fp, ip, lr, pc}
    b8f4:	e24cb004 	sub	fp, ip, #4	; 0x4
    b8f8:	e24dd010 	sub	sp, sp, #16	; 0x10
    b8fc:	e50b0014 	str	r0, [fp, -#20]
    b900:	e51b3014 	ldr	r3, [fp, -#20]
    b904:	e50b3018 	str	r3, [fp, -#24]
    b908:	e51b3018 	ldr	r3, [fp, -#24]
    b90c:	e5930000 	ldr	r0, [r3]
    b910:	e59f1078 	ldr	r1, [pc, #120]	; b990 <destroy_node+0xa4>
    b914:	ebfff61e 	bl	9194 <_init+0x94>
    b918:	e1a03000 	mov	r3, r0
    b91c:	e3530000 	cmp	r3, #0	; 0x0
    b920:	1a000002 	bne	b930 <destroy_node+0x44>
    b924:	e3a00000 	mov	r0, #0	; 0x0
    b928:	e59f1064 	ldr	r1, [pc, #100]	; b994 <destroy_node+0xa8>
    b92c:	eb0007f8 	bl	d914 <corrupt>
    b930:	e3e0300f 	mvn	r3, #15	; 0xf
    b934:	e24b1010 	sub	r1, fp, #16	; 0x10
    b938:	e0812003 	add	r2, r1, r3
    b93c:	e51b3018 	ldr	r3, [fp, -#24]
    b940:	e5933000 	ldr	r3, [r3]
    b944:	e5823000 	str	r3, [r2]
    b948:	e3e0300f 	mvn	r3, #15	; 0xf
    b94c:	e24b2010 	sub	r2, fp, #16	; 0x10
    b950:	e0824003 	add	r4, r2, r3
    b954:	e51b3018 	ldr	r3, [fp, -#24]
    b958:	e5930000 	ldr	r0, [r3]
    b95c:	ebfff69c 	bl	93d4 <_init+0x2d4>
    b960:	e1a03000 	mov	r3, r0
    b964:	e5843004 	str	r3, [r4, #4]
    b968:	e51b2018 	ldr	r2, [fp, -#24]
    b96c:	e3e0300f 	mvn	r3, #15	; 0xf
    b970:	e24b1010 	sub	r1, fp, #16	; 0x10
    b974:	e0813003 	add	r3, r1, r3
    b978:	e5920004 	ldr	r0, [r2, #4]
    b97c:	e8930006 	ldmia	r3, {r1, r2}
    b980:	eb002f80 	bl	17788 <tdb_delete>
    b984:	e3a03000 	mov	r3, #0	; 0x0
    b988:	e1a00003 	mov	r0, r3
    b98c:	e91ba810 	ldmdb	fp, {r4, fp, sp, pc}
    b990:	0001a9f0 	streqd	sl, [r1], -r0
    b994:	0001ab78 	andeq	sl, r1, r8, ror fp

0000b998 <create_node>:
    b998:	e1a0c00d 	mov	ip, sp
    b99c:	e92dd800 	stmdb	sp!, {fp, ip, lr, pc}
    b9a0:	e24cb004 	sub	fp, ip, #4	; 0x4
    b9a4:	e24dd01c 	sub	sp, sp, #28	; 0x1c
    b9a8:	e50b0010 	str	r0, [fp, -#16]
    b9ac:	e50b1014 	str	r1, [fp, -#20]
    b9b0:	e50b2018 	str	r2, [fp, -#24]
    b9b4:	e50b301c 	str	r3, [fp, -#28]
    b9b8:	e51b0010 	ldr	r0, [fp, -#16]
    b9bc:	e51b1014 	ldr	r1, [fp, -#20]
    b9c0:	ebffff44 	bl	b6d8 <construct_node>
    b9c4:	e1a03000 	mov	r3, r0
    b9c8:	e50b3020 	str	r3, [fp, -#32]
    b9cc:	e51b3020 	ldr	r3, [fp, -#32]
    b9d0:	e3530000 	cmp	r3, #0	; 0x0
    b9d4:	1a000002 	bne	b9e4 <create_node+0x4c>
    b9d8:	e3a03000 	mov	r3, #0	; 0x0
    b9dc:	e50b3028 	str	r3, [fp, -#40]
    b9e0:	ea00002b 	b	ba94 <create_node+0xfc>
    b9e4:	e51b2020 	ldr	r2, [fp, -#32]
    b9e8:	e51b3018 	ldr	r3, [fp, -#24]
    b9ec:	e5823018 	str	r3, [r2, #24]
    b9f0:	e51b2020 	ldr	r2, [fp, -#32]
    b9f4:	e51b301c 	ldr	r3, [fp, -#28]
    b9f8:	e5823014 	str	r3, [r2, #20]
    b9fc:	e51b3020 	ldr	r3, [fp, -#32]
    ba00:	e50b3024 	str	r3, [fp, -#36]
    ba04:	e51b3024 	ldr	r3, [fp, -#36]
    ba08:	e3530000 	cmp	r3, #0	; 0x0
    ba0c:	1a000000 	bne	ba14 <create_node+0x7c>
    ba10:	ea000010 	b	ba58 <create_node+0xc0>
    ba14:	e51b0010 	ldr	r0, [fp, -#16]
    ba18:	e51b1024 	ldr	r1, [fp, -#36]
    ba1c:	ebfffb3f 	bl	a720 <write_node>
    ba20:	e1a03000 	mov	r3, r0
    ba24:	e20330ff 	and	r3, r3, #255	; 0xff
    ba28:	e3530000 	cmp	r3, #0	; 0x0
    ba2c:	1a000002 	bne	ba3c <create_node+0xa4>
    ba30:	e3a03000 	mov	r3, #0	; 0x0
    ba34:	e50b3028 	str	r3, [fp, -#40]
    ba38:	ea000015 	b	ba94 <create_node+0xfc>
    ba3c:	e51b0024 	ldr	r0, [fp, -#36]
    ba40:	e59f1054 	ldr	r1, [pc, #84]	; ba9c <create_node+0x104>
    ba44:	eb0015ed 	bl	11200 <talloc_set_destructor>
    ba48:	e51b3024 	ldr	r3, [fp, -#36]
    ba4c:	e5933008 	ldr	r3, [r3, #8]
    ba50:	e50b3024 	str	r3, [fp, -#36]
    ba54:	eaffffea 	b	ba04 <create_node+0x6c>
    ba58:	e51b3020 	ldr	r3, [fp, -#32]
    ba5c:	e50b3024 	str	r3, [fp, -#36]
    ba60:	e51b3024 	ldr	r3, [fp, -#36]
    ba64:	e3530000 	cmp	r3, #0	; 0x0
    ba68:	1a000000 	bne	ba70 <create_node+0xd8>
    ba6c:	ea000006 	b	ba8c <create_node+0xf4>
    ba70:	e51b0024 	ldr	r0, [fp, -#36]
    ba74:	e3a01000 	mov	r1, #0	; 0x0
    ba78:	eb0015e0 	bl	11200 <talloc_set_destructor>
    ba7c:	e51b3024 	ldr	r3, [fp, -#36]
    ba80:	e5933008 	ldr	r3, [r3, #8]
    ba84:	e50b3024 	str	r3, [fp, -#36]
    ba88:	eafffff4 	b	ba60 <create_node+0xc8>
    ba8c:	e51b3020 	ldr	r3, [fp, -#32]
    ba90:	e50b3028 	str	r3, [fp, -#40]
    ba94:	e51b0028 	ldr	r0, [fp, -#40]
    ba98:	e91ba800 	ldmdb	fp, {fp, sp, pc}
    ba9c:	0000b8ec 	andeq	fp, r0, ip, ror #17

0000baa0 <do_write>:
    baa0:	e1a0c00d 	mov	ip, sp
    baa4:	e92dd800 	stmdb	sp!, {fp, ip, lr, pc}
    baa8:	e24cb004 	sub	fp, ip, #4	; 0x4
    baac:	e24dd01c 	sub	sp, sp, #28	; 0x1c
    bab0:	e50b0010 	str	r0, [fp, -#16]
    bab4:	e50b1014 	str	r1, [fp, -#20]
    bab8:	e3a03000 	mov	r3, #0	; 0x0
    babc:	e50b3024 	str	r3, [fp, -#36]
    bac0:	e24b3024 	sub	r3, fp, #36	; 0x24
    bac4:	e51b0014 	ldr	r0, [fp, -#20]
    bac8:	e1a01003 	mov	r1, r3
    bacc:	e3a02001 	mov	r2, #1	; 0x1
    bad0:	ebfffcee 	bl	ae90 <get_strings>
    bad4:	e1a03000 	mov	r3, r0
    bad8:	e3530000 	cmp	r3, #0	; 0x0
    badc:	1a000003 	bne	baf0 <do_write+0x50>
    bae0:	e51b0010 	ldr	r0, [fp, -#16]
    bae4:	e3a01016 	mov	r1, #22	; 0x16
    bae8:	ebfffd59 	bl	b054 <send_error>
    baec:	ea000058 	b	bc54 <do_write+0x1b4>
    baf0:	e51b0024 	ldr	r0, [fp, -#36]
    baf4:	ebfff636 	bl	93d4 <_init+0x2d4>
    baf8:	e1a03000 	mov	r3, r0
    bafc:	e2833001 	add	r3, r3, #1	; 0x1
    bb00:	e50b3018 	str	r3, [fp, -#24]
    bb04:	e51b3014 	ldr	r3, [fp, -#20]
    bb08:	e593200c 	ldr	r2, [r3, #12]
    bb0c:	e51b3018 	ldr	r3, [fp, -#24]
    bb10:	e0633002 	rsb	r3, r3, r2
    bb14:	e50b301c 	str	r3, [fp, -#28]
    bb18:	e51b0010 	ldr	r0, [fp, -#16]
    bb1c:	e51b1024 	ldr	r1, [fp, -#36]
    bb20:	ebfffe32 	bl	b3f0 <canonicalize>
    bb24:	e1a03000 	mov	r3, r0
    bb28:	e50b3028 	str	r3, [fp, -#40]
    bb2c:	e51b0010 	ldr	r0, [fp, -#16]
    bb30:	e51b1028 	ldr	r1, [fp, -#40]
    bb34:	e3a02002 	mov	r2, #2	; 0x2
    bb38:	ebfffc49 	bl	ac64 <get_node>
    bb3c:	e1a03000 	mov	r3, r0
    bb40:	e50b3020 	str	r3, [fp, -#32]
    bb44:	e51b3020 	ldr	r3, [fp, -#32]
    bb48:	e3530000 	cmp	r3, #0	; 0x0
    bb4c:	1a00001e 	bne	bbcc <do_write+0x12c>
    bb50:	ebfff5cf 	bl	9294 <_init+0x194>
    bb54:	e1a03000 	mov	r3, r0
    bb58:	e5933000 	ldr	r3, [r3]
    bb5c:	e3530002 	cmp	r3, #2	; 0x2
    bb60:	0a000005 	beq	bb7c <do_write+0xdc>
    bb64:	ebfff5ca 	bl	9294 <_init+0x194>
    bb68:	e1a03000 	mov	r3, r0
    bb6c:	e51b0010 	ldr	r0, [fp, -#16]
    bb70:	e5931000 	ldr	r1, [r3]
    bb74:	ebfffd36 	bl	b054 <send_error>
    bb78:	ea000035 	b	bc54 <do_write+0x1b4>
    bb7c:	e51b3014 	ldr	r3, [fp, -#20]
    bb80:	e5932020 	ldr	r2, [r3, #32]
    bb84:	e51b3018 	ldr	r3, [fp, -#24]
    bb88:	e0823003 	add	r3, r2, r3
    bb8c:	e51b0010 	ldr	r0, [fp, -#16]
    bb90:	e51b1028 	ldr	r1, [fp, -#40]
    bb94:	e1a02003 	mov	r2, r3
    bb98:	e51b301c 	ldr	r3, [fp, -#28]
    bb9c:	ebffff7d 	bl	b998 <create_node>
    bba0:	e1a03000 	mov	r3, r0
    bba4:	e50b3020 	str	r3, [fp, -#32]
    bba8:	e51b3020 	ldr	r3, [fp, -#32]
    bbac:	e3530000 	cmp	r3, #0	; 0x0
    bbb0:	1a00001b 	bne	bc24 <do_write+0x184>
    bbb4:	ebfff5b6 	bl	9294 <_init+0x194>
    bbb8:	e1a03000 	mov	r3, r0
    bbbc:	e51b0010 	ldr	r0, [fp, -#16]
    bbc0:	e5931000 	ldr	r1, [r3]
    bbc4:	ebfffd22 	bl	b054 <send_error>
    bbc8:	ea000021 	b	bc54 <do_write+0x1b4>
    bbcc:	e51b1020 	ldr	r1, [fp, -#32]
    bbd0:	e51b3014 	ldr	r3, [fp, -#20]
    bbd4:	e5932020 	ldr	r2, [r3, #32]
    bbd8:	e51b3018 	ldr	r3, [fp, -#24]
    bbdc:	e0823003 	add	r3, r2, r3
    bbe0:	e5813018 	str	r3, [r1, #24]
    bbe4:	e51b2020 	ldr	r2, [fp, -#32]
    bbe8:	e51b301c 	ldr	r3, [fp, -#28]
    bbec:	e5823014 	str	r3, [r2, #20]
    bbf0:	e51b0010 	ldr	r0, [fp, -#16]
    bbf4:	e51b1020 	ldr	r1, [fp, -#32]
    bbf8:	ebfffac8 	bl	a720 <write_node>
    bbfc:	e1a03000 	mov	r3, r0
    bc00:	e20330ff 	and	r3, r3, #255	; 0xff
    bc04:	e3530000 	cmp	r3, #0	; 0x0
    bc08:	1a000005 	bne	bc24 <do_write+0x184>
    bc0c:	ebfff5a0 	bl	9294 <_init+0x194>
    bc10:	e1a03000 	mov	r3, r0
    bc14:	e51b0010 	ldr	r0, [fp, -#16]
    bc18:	e5931000 	ldr	r1, [r3]
    bc1c:	ebfffd0c 	bl	b054 <send_error>
    bc20:	ea00000b 	b	bc54 <do_write+0x1b4>
    bc24:	e51b3010 	ldr	r3, [fp, -#16]
    bc28:	e5930020 	ldr	r0, [r3, #32]
    bc2c:	e51b1028 	ldr	r1, [fp, -#40]
    bc30:	e3a02000 	mov	r2, #0	; 0x0
    bc34:	eb00116d 	bl	101f0 <add_change_node>
    bc38:	e51b0010 	ldr	r0, [fp, -#16]
    bc3c:	e51b1028 	ldr	r1, [fp, -#40]
    bc40:	e3a02000 	mov	r2, #0	; 0x0
    bc44:	eb000aff 	bl	e848 <fire_watches>
    bc48:	e51b0010 	ldr	r0, [fp, -#16]
    bc4c:	e3a0100b 	mov	r1, #11	; 0xb
    bc50:	ebfffcf2 	bl	b020 <send_ack>
    bc54:	e91ba800 	ldmdb	fp, {fp, sp, pc}

0000bc58 <do_mkdir>:
    bc58:	e1a0c00d 	mov	ip, sp
    bc5c:	e92dd800 	stmdb	sp!, {fp, ip, lr, pc}
    bc60:	e24cb004 	sub	fp, ip, #4	; 0x4
    bc64:	e24dd00c 	sub	sp, sp, #12	; 0xc
    bc68:	e50b0010 	str	r0, [fp, -#16]
    bc6c:	e50b1014 	str	r1, [fp, -#20]
    bc70:	e51b0010 	ldr	r0, [fp, -#16]
    bc74:	e51b1014 	ldr	r1, [fp, -#20]
    bc78:	ebfffddc 	bl	b3f0 <canonicalize>
    bc7c:	e50b0014 	str	r0, [fp, -#20]
    bc80:	e51b0010 	ldr	r0, [fp, -#16]
    bc84:	e51b1014 	ldr	r1, [fp, -#20]
    bc88:	e3a02002 	mov	r2, #2	; 0x2
    bc8c:	ebfffbf4 	bl	ac64 <get_node>
    bc90:	e1a03000 	mov	r3, r0
    bc94:	e50b3018 	str	r3, [fp, -#24]
    bc98:	e51b3018 	ldr	r3, [fp, -#24]
    bc9c:	e3530000 	cmp	r3, #0	; 0x0
    bca0:	1a000023 	bne	bd34 <do_mkdir+0xdc>
    bca4:	ebfff57a 	bl	9294 <_init+0x194>
    bca8:	e1a03000 	mov	r3, r0
    bcac:	e5933000 	ldr	r3, [r3]
    bcb0:	e3530002 	cmp	r3, #2	; 0x2
    bcb4:	0a000005 	beq	bcd0 <do_mkdir+0x78>
    bcb8:	ebfff575 	bl	9294 <_init+0x194>
    bcbc:	e1a03000 	mov	r3, r0
    bcc0:	e51b0010 	ldr	r0, [fp, -#16]
    bcc4:	e5931000 	ldr	r1, [r3]
    bcc8:	ebfffce1 	bl	b054 <send_error>
    bccc:	ea00001b 	b	bd40 <do_mkdir+0xe8>
    bcd0:	e51b0010 	ldr	r0, [fp, -#16]
    bcd4:	e51b1014 	ldr	r1, [fp, -#20]
    bcd8:	e3a02000 	mov	r2, #0	; 0x0
    bcdc:	e3a03000 	mov	r3, #0	; 0x0
    bce0:	ebffff2c 	bl	b998 <create_node>
    bce4:	e1a03000 	mov	r3, r0
    bce8:	e50b3018 	str	r3, [fp, -#24]
    bcec:	e51b3018 	ldr	r3, [fp, -#24]
    bcf0:	e3530000 	cmp	r3, #0	; 0x0
    bcf4:	1a000005 	bne	bd10 <do_mkdir+0xb8>
    bcf8:	ebfff565 	bl	9294 <_init+0x194>
    bcfc:	e1a03000 	mov	r3, r0
    bd00:	e51b0010 	ldr	r0, [fp, -#16]
    bd04:	e5931000 	ldr	r1, [r3]
    bd08:	ebfffcd1 	bl	b054 <send_error>
    bd0c:	ea00000b 	b	bd40 <do_mkdir+0xe8>
    bd10:	e51b3010 	ldr	r3, [fp, -#16]
    bd14:	e5930020 	ldr	r0, [r3, #32]
    bd18:	e51b1014 	ldr	r1, [fp, -#20]
    bd1c:	e3a02000 	mov	r2, #0	; 0x0
    bd20:	eb001132 	bl	101f0 <add_change_node>
    bd24:	e51b0010 	ldr	r0, [fp, -#16]
    bd28:	e51b1014 	ldr	r1, [fp, -#20]
    bd2c:	e3a02000 	mov	r2, #0	; 0x0
    bd30:	eb000ac4 	bl	e848 <fire_watches>
    bd34:	e51b0010 	ldr	r0, [fp, -#16]
    bd38:	e3a0100c 	mov	r1, #12	; 0xc
    bd3c:	ebfffcb7 	bl	b020 <send_ack>
    bd40:	e91ba800 	ldmdb	fp, {fp, sp, pc}

0000bd44 <delete_node>:
    bd44:	e1a0c00d 	mov	ip, sp
    bd48:	e92dd800 	stmdb	sp!, {fp, ip, lr, pc}
    bd4c:	e24cb004 	sub	fp, ip, #4	; 0x4
    bd50:	e24dd010 	sub	sp, sp, #16	; 0x10
    bd54:	e50b0010 	str	r0, [fp, -#16]
    bd58:	e50b1014 	str	r1, [fp, -#20]
    bd5c:	e51b0010 	ldr	r0, [fp, -#16]
    bd60:	e51b1014 	ldr	r1, [fp, -#20]
    bd64:	ebfffe28 	bl	b60c <delete_node_single>
    bd68:	e3a03000 	mov	r3, #0	; 0x0
    bd6c:	e50b3018 	str	r3, [fp, -#24]
    bd70:	e51b3014 	ldr	r3, [fp, -#20]
    bd74:	e51b2018 	ldr	r2, [fp, -#24]
    bd78:	e593301c 	ldr	r3, [r3, #28]
    bd7c:	e1520003 	cmp	r2, r3
    bd80:	3a000000 	bcc	bd88 <delete_node+0x44>
    bd84:	ea00002b 	b	be38 <delete_node+0xf4>
    bd88:	e51bc014 	ldr	ip, [fp, -#20]
    bd8c:	e51b3014 	ldr	r3, [fp, -#20]
    bd90:	e5932020 	ldr	r2, [r3, #32]
    bd94:	e51b3018 	ldr	r3, [fp, -#24]
    bd98:	e0823003 	add	r3, r2, r3
    bd9c:	e51b0014 	ldr	r0, [fp, -#20]
    bda0:	e59f1094 	ldr	r1, [pc, #148]	; be3c <delete_node+0xf8>
    bda4:	e59c2000 	ldr	r2, [ip]
    bda8:	eb001c5b 	bl	12f1c <talloc_asprintf>
    bdac:	e1a03000 	mov	r3, r0
    bdb0:	e51b0010 	ldr	r0, [fp, -#16]
    bdb4:	e1a01003 	mov	r1, r3
    bdb8:	ebfff9c6 	bl	a4d8 <read_node>
    bdbc:	e1a03000 	mov	r3, r0
    bdc0:	e50b301c 	str	r3, [fp, -#28]
    bdc4:	e51b301c 	ldr	r3, [fp, -#28]
    bdc8:	e3530000 	cmp	r3, #0	; 0x0
    bdcc:	0a000003 	beq	bde0 <delete_node+0x9c>
    bdd0:	e51b0010 	ldr	r0, [fp, -#16]
    bdd4:	e51b101c 	ldr	r1, [fp, -#28]
    bdd8:	ebffffd9 	bl	bd44 <delete_node>
    bddc:	ea000008 	b	be04 <delete_node+0xc0>
    bde0:	e51b1014 	ldr	r1, [fp, -#20]
    bde4:	e51b3014 	ldr	r3, [fp, -#20]
    bde8:	e5932020 	ldr	r2, [r3, #32]
    bdec:	e51b3018 	ldr	r3, [fp, -#24]
    bdf0:	e0823003 	add	r3, r2, r3
    bdf4:	e59f0044 	ldr	r0, [pc, #68]	; be40 <delete_node+0xfc>
    bdf8:	e5911000 	ldr	r1, [r1]
    bdfc:	e1a02003 	mov	r2, r3
    be00:	ebfff6d7 	bl	9964 <trace>
    be04:	e51b3014 	ldr	r3, [fp, -#20]
    be08:	e5932020 	ldr	r2, [r3, #32]
    be0c:	e51b3018 	ldr	r3, [fp, -#24]
    be10:	e0823003 	add	r3, r2, r3
    be14:	e1a00003 	mov	r0, r3
    be18:	ebfff56d 	bl	93d4 <_init+0x2d4>
    be1c:	e1a03000 	mov	r3, r0
    be20:	e1a02003 	mov	r2, r3
    be24:	e51b3018 	ldr	r3, [fp, -#24]
    be28:	e0823003 	add	r3, r2, r3
    be2c:	e2833001 	add	r3, r3, #1	; 0x1
    be30:	e50b3018 	str	r3, [fp, -#24]
    be34:	eaffffcd 	b	bd70 <delete_node+0x2c>
    be38:	e91ba800 	ldmdb	fp, {fp, sp, pc}
    be3c:	0001ab3c 	andeq	sl, r1, ip, lsr fp
    be40:	0001ab90 	muleq	r1, r0, fp

0000be44 <memdel>:
    be44:	e1a0c00d 	mov	ip, sp
    be48:	e92dd800 	stmdb	sp!, {fp, ip, lr, pc}
    be4c:	e24cb004 	sub	fp, ip, #4	; 0x4
    be50:	e24dd010 	sub	sp, sp, #16	; 0x10
    be54:	e50b0010 	str	r0, [fp, -#16]
    be58:	e50b1014 	str	r1, [fp, -#20]
    be5c:	e50b2018 	str	r2, [fp, -#24]
    be60:	e50b301c 	str	r3, [fp, -#28]
    be64:	e51b2010 	ldr	r2, [fp, -#16]
    be68:	e51b3014 	ldr	r3, [fp, -#20]
    be6c:	e0820003 	add	r0, r2, r3
    be70:	e51b2010 	ldr	r2, [fp, -#16]
    be74:	e51b3014 	ldr	r3, [fp, -#20]
    be78:	e0822003 	add	r2, r2, r3
    be7c:	e51b3018 	ldr	r3, [fp, -#24]
    be80:	e0821003 	add	r1, r2, r3
    be84:	e51b201c 	ldr	r2, [fp, -#28]
    be88:	e51b3014 	ldr	r3, [fp, -#20]
    be8c:	e0632002 	rsb	r2, r3, r2
    be90:	e51b3018 	ldr	r3, [fp, -#24]
    be94:	e0633002 	rsb	r3, r3, r2
    be98:	e1a02003 	mov	r2, r3
    be9c:	ebfff520 	bl	9324 <_init+0x224>
    bea0:	e91ba800 	ldmdb	fp, {fp, sp, pc}

0000bea4 <remove_child_entry>:
    bea4:	e1a0c00d 	mov	ip, sp
    bea8:	e92dd800 	stmdb	sp!, {fp, ip, lr, pc}
    beac:	e24cb004 	sub	fp, ip, #4	; 0x4
    beb0:	e24dd010 	sub	sp, sp, #16	; 0x10
    beb4:	e50b0010 	str	r0, [fp, -#16]
    beb8:	e50b1014 	str	r1, [fp, -#20]
    bebc:	e50b2018 	str	r2, [fp, -#24]
    bec0:	e51b3014 	ldr	r3, [fp, -#20]
    bec4:	e5932020 	ldr	r2, [r3, #32]
    bec8:	e51b3018 	ldr	r3, [fp, -#24]
    becc:	e0823003 	add	r3, r2, r3
    bed0:	e1a00003 	mov	r0, r3
    bed4:	ebfff53e 	bl	93d4 <_init+0x2d4>
    bed8:	e1a03000 	mov	r3, r0
    bedc:	e50b301c 	str	r3, [fp, -#28]
    bee0:	e51b2014 	ldr	r2, [fp, -#20]
    bee4:	e51b301c 	ldr	r3, [fp, -#28]
    bee8:	e2833001 	add	r3, r3, #1	; 0x1
    beec:	e51bc014 	ldr	ip, [fp, -#20]
    bef0:	e5920020 	ldr	r0, [r2, #32]
    bef4:	e51b1018 	ldr	r1, [fp, -#24]
    bef8:	e1a02003 	mov	r2, r3
    befc:	e59c301c 	ldr	r3, [ip, #28]
    bf00:	ebffffcf 	bl	be44 <memdel>
    bf04:	e51b1014 	ldr	r1, [fp, -#20]
    bf08:	e51b3014 	ldr	r3, [fp, -#20]
    bf0c:	e593201c 	ldr	r2, [r3, #28]
    bf10:	e51b301c 	ldr	r3, [fp, -#28]
    bf14:	e0633002 	rsb	r3, r3, r2
    bf18:	e2433001 	sub	r3, r3, #1	; 0x1
    bf1c:	e581301c 	str	r3, [r1, #28]
    bf20:	e51b0010 	ldr	r0, [fp, -#16]
    bf24:	e51b1014 	ldr	r1, [fp, -#20]
    bf28:	ebfff9fc 	bl	a720 <write_node>
    bf2c:	e1a03000 	mov	r3, r0
    bf30:	e20330ff 	and	r3, r3, #255	; 0xff
    bf34:	e1a00003 	mov	r0, r3
    bf38:	e91ba800 	ldmdb	fp, {fp, sp, pc}

0000bf3c <delete_child>:
    bf3c:	e1a0c00d 	mov	ip, sp
    bf40:	e92dd800 	stmdb	sp!, {fp, ip, lr, pc}
    bf44:	e24cb004 	sub	fp, ip, #4	; 0x4
    bf48:	e24dd014 	sub	sp, sp, #20	; 0x14
    bf4c:	e50b0010 	str	r0, [fp, -#16]
    bf50:	e50b1014 	str	r1, [fp, -#20]
    bf54:	e50b2018 	str	r2, [fp, -#24]
    bf58:	e3a03000 	mov	r3, #0	; 0x0
    bf5c:	e50b301c 	str	r3, [fp, -#28]
    bf60:	e51b3014 	ldr	r3, [fp, -#20]
    bf64:	e51b201c 	ldr	r2, [fp, -#28]
    bf68:	e593301c 	ldr	r3, [r3, #28]
    bf6c:	e1520003 	cmp	r2, r3
    bf70:	3a000000 	bcc	bf78 <delete_child+0x3c>
    bf74:	ea00001e 	b	bff4 <delete_child+0xb8>
    bf78:	e51b3014 	ldr	r3, [fp, -#20]
    bf7c:	e5932020 	ldr	r2, [r3, #32]
    bf80:	e51b301c 	ldr	r3, [fp, -#28]
    bf84:	e0823003 	add	r3, r2, r3
    bf88:	e1a00003 	mov	r0, r3
    bf8c:	e51b1018 	ldr	r1, [fp, -#24]
    bf90:	ebfff47f 	bl	9194 <_init+0x94>
    bf94:	e1a03000 	mov	r3, r0
    bf98:	e3530000 	cmp	r3, #0	; 0x0
    bf9c:	1a000007 	bne	bfc0 <delete_child+0x84>
    bfa0:	e51b0010 	ldr	r0, [fp, -#16]
    bfa4:	e51b1014 	ldr	r1, [fp, -#20]
    bfa8:	e51b201c 	ldr	r2, [fp, -#28]
    bfac:	ebffffbc 	bl	bea4 <remove_child_entry>
    bfb0:	e1a03000 	mov	r3, r0
    bfb4:	e20330ff 	and	r3, r3, #255	; 0xff
    bfb8:	e50b3020 	str	r3, [fp, -#32]
    bfbc:	ea000014 	b	c014 <delete_child+0xd8>
    bfc0:	e51b3014 	ldr	r3, [fp, -#20]
    bfc4:	e5932020 	ldr	r2, [r3, #32]
    bfc8:	e51b301c 	ldr	r3, [fp, -#28]
    bfcc:	e0823003 	add	r3, r2, r3
    bfd0:	e1a00003 	mov	r0, r3
    bfd4:	ebfff4fe 	bl	93d4 <_init+0x2d4>
    bfd8:	e1a03000 	mov	r3, r0
    bfdc:	e1a02003 	mov	r2, r3
    bfe0:	e51b301c 	ldr	r3, [fp, -#28]
    bfe4:	e0823003 	add	r3, r2, r3
    bfe8:	e2833001 	add	r3, r3, #1	; 0x1
    bfec:	e50b301c 	str	r3, [fp, -#28]
    bff0:	eaffffda 	b	bf60 <delete_child+0x24>
    bff4:	e51b3014 	ldr	r3, [fp, -#20]
    bff8:	e51b0010 	ldr	r0, [fp, -#16]
    bffc:	e59f1018 	ldr	r1, [pc, #24]	; c01c <delete_child+0xe0>
    c000:	e51b2018 	ldr	r2, [fp, -#24]
    c004:	e5933000 	ldr	r3, [r3]
    c008:	eb000641 	bl	d914 <corrupt>
    c00c:	e3a03000 	mov	r3, #0	; 0x0
    c010:	e50b3020 	str	r3, [fp, -#32]
    c014:	e51b0020 	ldr	r0, [fp, -#32]
    c018:	e91ba800 	ldmdb	fp, {fp, sp, pc}
    c01c:	0001abb8 	streqh	sl, [r1], -r8

0000c020 <_rm>:
    c020:	e1a0c00d 	mov	ip, sp
    c024:	e92dd800 	stmdb	sp!, {fp, ip, lr, pc}
    c028:	e24cb004 	sub	fp, ip, #4	; 0x4
    c02c:	e24dd014 	sub	sp, sp, #20	; 0x14
    c030:	e50b0010 	str	r0, [fp, -#16]
    c034:	e50b1014 	str	r1, [fp, -#20]
    c038:	e50b2018 	str	r2, [fp, -#24]
    c03c:	e51b0018 	ldr	r0, [fp, -#24]
    c040:	ebfffa9e 	bl	aac0 <get_parent>
    c044:	e1a03000 	mov	r3, r0
    c048:	e51b0010 	ldr	r0, [fp, -#16]
    c04c:	e1a01003 	mov	r1, r3
    c050:	ebfff920 	bl	a4d8 <read_node>
    c054:	e1a03000 	mov	r3, r0
    c058:	e50b301c 	str	r3, [fp, -#28]
    c05c:	e51b301c 	ldr	r3, [fp, -#28]
    c060:	e3530000 	cmp	r3, #0	; 0x0
    c064:	1a000005 	bne	c080 <_rm+0x60>
    c068:	e51b0010 	ldr	r0, [fp, -#16]
    c06c:	e3a01016 	mov	r1, #22	; 0x16
    c070:	ebfffbf7 	bl	b054 <send_error>
    c074:	e3a03000 	mov	r3, #0	; 0x0
    c078:	e50b3020 	str	r3, [fp, -#32]
    c07c:	ea000015 	b	c0d8 <_rm+0xb8>
    c080:	e51b0018 	ldr	r0, [fp, -#24]
    c084:	ebfffd87 	bl	b6a8 <basename>
    c088:	e1a03000 	mov	r3, r0
    c08c:	e51b0010 	ldr	r0, [fp, -#16]
    c090:	e51b101c 	ldr	r1, [fp, -#28]
    c094:	e1a02003 	mov	r2, r3
    c098:	ebffffa7 	bl	bf3c <delete_child>
    c09c:	e1a03000 	mov	r3, r0
    c0a0:	e20330ff 	and	r3, r3, #255	; 0xff
    c0a4:	e3530000 	cmp	r3, #0	; 0x0
    c0a8:	1a000005 	bne	c0c4 <_rm+0xa4>
    c0ac:	e51b0010 	ldr	r0, [fp, -#16]
    c0b0:	e3a01016 	mov	r1, #22	; 0x16
    c0b4:	ebfffbe6 	bl	b054 <send_error>
    c0b8:	e3a03000 	mov	r3, #0	; 0x0
    c0bc:	e50b3020 	str	r3, [fp, -#32]
    c0c0:	ea000004 	b	c0d8 <_rm+0xb8>
    c0c4:	e51b0010 	ldr	r0, [fp, -#16]
    c0c8:	e51b1014 	ldr	r1, [fp, -#20]
    c0cc:	ebffff1c 	bl	bd44 <delete_node>
    c0d0:	e3a03001 	mov	r3, #1	; 0x1
    c0d4:	e50b3020 	str	r3, [fp, -#32]
    c0d8:	e51b0020 	ldr	r0, [fp, -#32]
    c0dc:	e91ba800 	ldmdb	fp, {fp, sp, pc}

0000c0e0 <internal_rm>:
    c0e0:	e1a0c00d 	mov	ip, sp
    c0e4:	e92dd800 	stmdb	sp!, {fp, ip, lr, pc}
    c0e8:	e24cb004 	sub	fp, ip, #4	; 0x4
    c0ec:	e24dd00c 	sub	sp, sp, #12	; 0xc
    c0f0:	e50b0010 	str	r0, [fp, -#16]
    c0f4:	e3a00000 	mov	r0, #0	; 0x0
    c0f8:	e51b1010 	ldr	r1, [fp, -#16]
    c0fc:	eb001ace 	bl	12c3c <talloc_strdup>
    c100:	e1a03000 	mov	r3, r0
    c104:	e50b3014 	str	r3, [fp, -#20]
    c108:	e3a00000 	mov	r0, #0	; 0x0
    c10c:	e51b1014 	ldr	r1, [fp, -#20]
    c110:	ebfff8f0 	bl	a4d8 <read_node>
    c114:	e1a03000 	mov	r3, r0
    c118:	e50b3018 	str	r3, [fp, -#24]
    c11c:	e51b3018 	ldr	r3, [fp, -#24]
    c120:	e3530000 	cmp	r3, #0	; 0x0
    c124:	0a000003 	beq	c138 <internal_rm+0x58>
    c128:	e3a00000 	mov	r0, #0	; 0x0
    c12c:	e51b1018 	ldr	r1, [fp, -#24]
    c130:	e51b2014 	ldr	r2, [fp, -#20]
    c134:	ebffffb9 	bl	c020 <_rm>
    c138:	e51b0018 	ldr	r0, [fp, -#24]
    c13c:	eb0016ad 	bl	11bf8 <talloc_free>
    c140:	e51b0014 	ldr	r0, [fp, -#20]
    c144:	eb0016ab 	bl	11bf8 <talloc_free>
    c148:	e91ba800 	ldmdb	fp, {fp, sp, pc}

0000c14c <do_rm>:
    c14c:	e1a0c00d 	mov	ip, sp
    c150:	e92dd800 	stmdb	sp!, {fp, ip, lr, pc}
    c154:	e24cb004 	sub	fp, ip, #4	; 0x4
    c158:	e24dd00c 	sub	sp, sp, #12	; 0xc
    c15c:	e50b0010 	str	r0, [fp, -#16]
    c160:	e50b1014 	str	r1, [fp, -#20]
    c164:	e51b0010 	ldr	r0, [fp, -#16]
    c168:	e51b1014 	ldr	r1, [fp, -#20]
    c16c:	ebfffc9f 	bl	b3f0 <canonicalize>
    c170:	e50b0014 	str	r0, [fp, -#20]
    c174:	e51b0010 	ldr	r0, [fp, -#16]
    c178:	e51b1014 	ldr	r1, [fp, -#20]
    c17c:	e3a02002 	mov	r2, #2	; 0x2
    c180:	ebfffab7 	bl	ac64 <get_node>
    c184:	e1a03000 	mov	r3, r0
    c188:	e50b3018 	str	r3, [fp, -#24]
    c18c:	e51b3018 	ldr	r3, [fp, -#24]
    c190:	e3530000 	cmp	r3, #0	; 0x0
    c194:	1a00001e 	bne	c214 <do_rm+0xc8>
    c198:	ebfff43d 	bl	9294 <_init+0x194>
    c19c:	e1a03000 	mov	r3, r0
    c1a0:	e5933000 	ldr	r3, [r3]
    c1a4:	e3530002 	cmp	r3, #2	; 0x2
    c1a8:	1a000013 	bne	c1fc <do_rm+0xb0>
    c1ac:	e51b0014 	ldr	r0, [fp, -#20]
    c1b0:	ebfffa42 	bl	aac0 <get_parent>
    c1b4:	e1a03000 	mov	r3, r0
    c1b8:	e51b0010 	ldr	r0, [fp, -#16]
    c1bc:	e1a01003 	mov	r1, r3
    c1c0:	ebfff8c4 	bl	a4d8 <read_node>
    c1c4:	e1a03000 	mov	r3, r0
    c1c8:	e50b3018 	str	r3, [fp, -#24]
    c1cc:	e51b3018 	ldr	r3, [fp, -#24]
    c1d0:	e3530000 	cmp	r3, #0	; 0x0
    c1d4:	0a000003 	beq	c1e8 <do_rm+0x9c>
    c1d8:	e51b0010 	ldr	r0, [fp, -#16]
    c1dc:	e3a0100d 	mov	r1, #13	; 0xd
    c1e0:	ebfffb8e 	bl	b020 <send_ack>
    c1e4:	ea000027 	b	c288 <do_rm+0x13c>
    c1e8:	ebfff429 	bl	9294 <_init+0x194>
    c1ec:	e1a03000 	mov	r3, r0
    c1f0:	e1a02003 	mov	r2, r3
    c1f4:	e3a03002 	mov	r3, #2	; 0x2
    c1f8:	e5823000 	str	r3, [r2]
    c1fc:	ebfff424 	bl	9294 <_init+0x194>
    c200:	e1a03000 	mov	r3, r0
    c204:	e51b0010 	ldr	r0, [fp, -#16]
    c208:	e5931000 	ldr	r1, [r3]
    c20c:	ebfffb90 	bl	b054 <send_error>
    c210:	ea00001c 	b	c288 <do_rm+0x13c>
    c214:	e51b0014 	ldr	r0, [fp, -#20]
    c218:	e59f106c 	ldr	r1, [pc, #108]	; c28c <do_rm+0x140>
    c21c:	ebfff3dc 	bl	9194 <_init+0x94>
    c220:	e1a03000 	mov	r3, r0
    c224:	e3530000 	cmp	r3, #0	; 0x0
    c228:	1a000003 	bne	c23c <do_rm+0xf0>
    c22c:	e51b0010 	ldr	r0, [fp, -#16]
    c230:	e3a01016 	mov	r1, #22	; 0x16
    c234:	ebfffb86 	bl	b054 <send_error>
    c238:	ea000012 	b	c288 <do_rm+0x13c>
    c23c:	e51b0010 	ldr	r0, [fp, -#16]
    c240:	e51b1018 	ldr	r1, [fp, -#24]
    c244:	e51b2014 	ldr	r2, [fp, -#20]
    c248:	ebffff74 	bl	c020 <_rm>
    c24c:	e1a03000 	mov	r3, r0
    c250:	e3530000 	cmp	r3, #0	; 0x0
    c254:	0a00000b 	beq	c288 <do_rm+0x13c>
    c258:	e51b3010 	ldr	r3, [fp, -#16]
    c25c:	e5930020 	ldr	r0, [r3, #32]
    c260:	e51b1014 	ldr	r1, [fp, -#20]
    c264:	e3a02001 	mov	r2, #1	; 0x1
    c268:	eb000fe0 	bl	101f0 <add_change_node>
    c26c:	e51b0010 	ldr	r0, [fp, -#16]
    c270:	e51b1014 	ldr	r1, [fp, -#20]
    c274:	e3a02001 	mov	r2, #1	; 0x1
    c278:	eb000972 	bl	e848 <fire_watches>
    c27c:	e51b0010 	ldr	r0, [fp, -#16]
    c280:	e3a0100d 	mov	r1, #13	; 0xd
    c284:	ebfffb65 	bl	b020 <send_ack>
    c288:	e91ba800 	ldmdb	fp, {fp, sp, pc}
    c28c:	0001a9f0 	streqd	sl, [r1], -r0

0000c290 <do_get_perms>:
    c290:	e1a0c00d 	mov	ip, sp
    c294:	e92dd800 	stmdb	sp!, {fp, ip, lr, pc}
    c298:	e24cb004 	sub	fp, ip, #4	; 0x4
    c29c:	e24dd014 	sub	sp, sp, #20	; 0x14
    c2a0:	e50b0010 	str	r0, [fp, -#16]
    c2a4:	e50b1014 	str	r1, [fp, -#20]
    c2a8:	e51b0010 	ldr	r0, [fp, -#16]
    c2ac:	e51b1014 	ldr	r1, [fp, -#20]
    c2b0:	ebfffc4e 	bl	b3f0 <canonicalize>
    c2b4:	e50b0014 	str	r0, [fp, -#20]
    c2b8:	e51b0010 	ldr	r0, [fp, -#16]
    c2bc:	e51b1014 	ldr	r1, [fp, -#20]
    c2c0:	e3a02001 	mov	r2, #1	; 0x1
    c2c4:	ebfffa66 	bl	ac64 <get_node>
    c2c8:	e1a03000 	mov	r3, r0
    c2cc:	e50b3018 	str	r3, [fp, -#24]
    c2d0:	e51b3018 	ldr	r3, [fp, -#24]
    c2d4:	e3530000 	cmp	r3, #0	; 0x0
    c2d8:	1a000005 	bne	c2f4 <do_get_perms+0x64>
    c2dc:	ebfff3ec 	bl	9294 <_init+0x194>
    c2e0:	e1a03000 	mov	r3, r0
    c2e4:	e51b0010 	ldr	r0, [fp, -#16]
    c2e8:	e5931000 	ldr	r1, [r3]
    c2ec:	ebfffb58 	bl	b054 <send_error>
    c2f0:	ea000017 	b	c354 <do_get_perms+0xc4>
    c2f4:	e51b3018 	ldr	r3, [fp, -#24]
    c2f8:	e51b2018 	ldr	r2, [fp, -#24]
    c2fc:	e24bc020 	sub	ip, fp, #32	; 0x20
    c300:	e51b0018 	ldr	r0, [fp, -#24]
    c304:	e5931010 	ldr	r1, [r3, #16]
    c308:	e592200c 	ldr	r2, [r2, #12]
    c30c:	e1a0300c 	mov	r3, ip
    c310:	ebfffbe6 	bl	b2b0 <perms_to_strings>
    c314:	e1a03000 	mov	r3, r0
    c318:	e50b301c 	str	r3, [fp, -#28]
    c31c:	e51b301c 	ldr	r3, [fp, -#28]
    c320:	e3530000 	cmp	r3, #0	; 0x0
    c324:	1a000005 	bne	c340 <do_get_perms+0xb0>
    c328:	ebfff3d9 	bl	9294 <_init+0x194>
    c32c:	e1a03000 	mov	r3, r0
    c330:	e51b0010 	ldr	r0, [fp, -#16]
    c334:	e5931000 	ldr	r1, [r3]
    c338:	ebfffb45 	bl	b054 <send_error>
    c33c:	ea000004 	b	c354 <do_get_perms+0xc4>
    c340:	e51b0010 	ldr	r0, [fp, -#16]
    c344:	e3a01003 	mov	r1, #3	; 0x3
    c348:	e51b201c 	ldr	r2, [fp, -#28]
    c34c:	e51b3020 	ldr	r3, [fp, -#32]
    c350:	ebfffafa 	bl	af40 <send_reply>
    c354:	e91ba800 	ldmdb	fp, {fp, sp, pc}

0000c358 <do_set_perms>:
    c358:	e1a0c00d 	mov	ip, sp
    c35c:	e92dd810 	stmdb	sp!, {r4, fp, ip, lr, pc}
    c360:	e24cb004 	sub	fp, ip, #4	; 0x4
    c364:	e24dd018 	sub	sp, sp, #24	; 0x18
    c368:	e50b0014 	str	r0, [fp, -#20]
    c36c:	e50b1018 	str	r1, [fp, -#24]
    c370:	e51b3018 	ldr	r3, [fp, -#24]
    c374:	e51b2018 	ldr	r2, [fp, -#24]
    c378:	e5930020 	ldr	r0, [r3, #32]
    c37c:	e592100c 	ldr	r1, [r2, #12]
    c380:	eb0012ca 	bl	10eb0 <xs_count_strings>
    c384:	e1a03000 	mov	r3, r0
    c388:	e50b301c 	str	r3, [fp, -#28]
    c38c:	e51b301c 	ldr	r3, [fp, -#28]
    c390:	e3530001 	cmp	r3, #1	; 0x1
    c394:	8a000003 	bhi	c3a8 <do_set_perms+0x50>
    c398:	e51b0014 	ldr	r0, [fp, -#20]
    c39c:	e3a01016 	mov	r1, #22	; 0x16
    c3a0:	ebfffb2b 	bl	b054 <send_error>
    c3a4:	ea000053 	b	c4f8 <do_set_perms+0x1a0>
    c3a8:	e51b3018 	ldr	r3, [fp, -#24]
    c3ac:	e51b0014 	ldr	r0, [fp, -#20]
    c3b0:	e5931020 	ldr	r1, [r3, #32]
    c3b4:	ebfffc0d 	bl	b3f0 <canonicalize>
    c3b8:	e1a03000 	mov	r3, r0
    c3bc:	e50b3020 	str	r3, [fp, -#32]
    c3c0:	e51b4018 	ldr	r4, [fp, -#24]
    c3c4:	e51b3018 	ldr	r3, [fp, -#24]
    c3c8:	e5930020 	ldr	r0, [r3, #32]
    c3cc:	ebfff400 	bl	93d4 <_init+0x2d4>
    c3d0:	e1a03000 	mov	r3, r0
    c3d4:	e1a02003 	mov	r2, r3
    c3d8:	e5943020 	ldr	r3, [r4, #32]
    c3dc:	e0823003 	add	r3, r2, r3
    c3e0:	e2833001 	add	r3, r3, #1	; 0x1
    c3e4:	e50b3024 	str	r3, [fp, -#36]
    c3e8:	e51b301c 	ldr	r3, [fp, -#28]
    c3ec:	e2433001 	sub	r3, r3, #1	; 0x1
    c3f0:	e50b301c 	str	r3, [fp, -#28]
    c3f4:	e51b0014 	ldr	r0, [fp, -#20]
    c3f8:	e51b1020 	ldr	r1, [fp, -#32]
    c3fc:	e3a0200a 	mov	r2, #10	; 0xa
    c400:	ebfffa17 	bl	ac64 <get_node>
    c404:	e1a03000 	mov	r3, r0
    c408:	e50b3028 	str	r3, [fp, -#40]
    c40c:	e51b3028 	ldr	r3, [fp, -#40]
    c410:	e3530000 	cmp	r3, #0	; 0x0
    c414:	1a000005 	bne	c430 <do_set_perms+0xd8>
    c418:	ebfff39d 	bl	9294 <_init+0x194>
    c41c:	e1a03000 	mov	r3, r0
    c420:	e51b0014 	ldr	r0, [fp, -#20]
    c424:	e5931000 	ldr	r1, [r3]
    c428:	ebfffb09 	bl	b054 <send_error>
    c42c:	ea000031 	b	c4f8 <do_set_perms+0x1a0>
    c430:	e51b4028 	ldr	r4, [fp, -#40]
    c434:	e51b0028 	ldr	r0, [fp, -#40]
    c438:	e3a01008 	mov	r1, #8	; 0x8
    c43c:	e51b201c 	ldr	r2, [fp, -#28]
    c440:	e59f30b4 	ldr	r3, [pc, #180]	; c4fc <do_set_perms+0x1a4>
    c444:	eb001b24 	bl	130dc <_talloc_array>
    c448:	e5840010 	str	r0, [r4, #16]
    c44c:	e51b2028 	ldr	r2, [fp, -#40]
    c450:	e51b301c 	ldr	r3, [fp, -#28]
    c454:	e582300c 	str	r3, [r2, #12]
    c458:	e51b3028 	ldr	r3, [fp, -#40]
    c45c:	e5930010 	ldr	r0, [r3, #16]
    c460:	e51b101c 	ldr	r1, [fp, -#28]
    c464:	e51b2024 	ldr	r2, [fp, -#36]
    c468:	eb0011e5 	bl	10c04 <xs_strings_to_perms>
    c46c:	e1a03000 	mov	r3, r0
    c470:	e20330ff 	and	r3, r3, #255	; 0xff
    c474:	e3530000 	cmp	r3, #0	; 0x0
    c478:	1a000005 	bne	c494 <do_set_perms+0x13c>
    c47c:	ebfff384 	bl	9294 <_init+0x194>
    c480:	e1a03000 	mov	r3, r0
    c484:	e51b0014 	ldr	r0, [fp, -#20]
    c488:	e5931000 	ldr	r1, [r3]
    c48c:	ebfffaf0 	bl	b054 <send_error>
    c490:	ea000018 	b	c4f8 <do_set_perms+0x1a0>
    c494:	e51b0014 	ldr	r0, [fp, -#20]
    c498:	e51b1028 	ldr	r1, [fp, -#40]
    c49c:	ebfff89f 	bl	a720 <write_node>
    c4a0:	e1a03000 	mov	r3, r0
    c4a4:	e20330ff 	and	r3, r3, #255	; 0xff
    c4a8:	e3530000 	cmp	r3, #0	; 0x0
    c4ac:	1a000005 	bne	c4c8 <do_set_perms+0x170>
    c4b0:	ebfff377 	bl	9294 <_init+0x194>
    c4b4:	e1a03000 	mov	r3, r0
    c4b8:	e51b0014 	ldr	r0, [fp, -#20]
    c4bc:	e5931000 	ldr	r1, [r3]
    c4c0:	ebfffae3 	bl	b054 <send_error>
    c4c4:	ea00000b 	b	c4f8 <do_set_perms+0x1a0>
    c4c8:	e51b3014 	ldr	r3, [fp, -#20]
    c4cc:	e5930020 	ldr	r0, [r3, #32]
    c4d0:	e51b1020 	ldr	r1, [fp, -#32]
    c4d4:	e3a02000 	mov	r2, #0	; 0x0
    c4d8:	eb000f44 	bl	101f0 <add_change_node>
    c4dc:	e51b0014 	ldr	r0, [fp, -#20]
    c4e0:	e51b1020 	ldr	r1, [fp, -#32]
    c4e4:	e3a02000 	mov	r2, #0	; 0x0
    c4e8:	eb0008d6 	bl	e848 <fire_watches>
    c4ec:	e51b0014 	ldr	r0, [fp, -#20]
    c4f0:	e3a0100e 	mov	r1, #14	; 0xe
    c4f4:	ebfffac9 	bl	b020 <send_ack>
    c4f8:	e91ba810 	ldmdb	fp, {r4, fp, sp, pc}
    c4fc:	0001abd4 	ldreqd	sl, [r1], -r4

0000c500 <do_debug>:
    c500:	e1a0c00d 	mov	ip, sp
    c504:	e92dd810 	stmdb	sp!, {r4, fp, ip, lr, pc}
    c508:	e24cb004 	sub	fp, ip, #4	; 0x4
    c50c:	e24dd00c 	sub	sp, sp, #12	; 0xc
    c510:	e50b0014 	str	r0, [fp, -#20]
    c514:	e50b1018 	str	r1, [fp, -#24]
    c518:	e51b3018 	ldr	r3, [fp, -#24]
    c51c:	e51b2018 	ldr	r2, [fp, -#24]
    c520:	e5930020 	ldr	r0, [r3, #32]
    c524:	e592100c 	ldr	r1, [r2, #12]
    c528:	eb001260 	bl	10eb0 <xs_count_strings>
    c52c:	e50b001c 	str	r0, [fp, -#28]
    c530:	e51b3018 	ldr	r3, [fp, -#24]
    c534:	e5930020 	ldr	r0, [r3, #32]
    c538:	e59f1080 	ldr	r1, [pc, #128]	; c5c0 <do_debug+0xc0>
    c53c:	ebfff314 	bl	9194 <_init+0x94>
    c540:	e1a03000 	mov	r3, r0
    c544:	e3530000 	cmp	r3, #0	; 0x0
    c548:	1a000010 	bne	c590 <do_debug+0x90>
    c54c:	e51b301c 	ldr	r3, [fp, -#28]
    c550:	e3530001 	cmp	r3, #1	; 0x1
    c554:	ca000003 	bgt	c568 <do_debug+0x68>
    c558:	e51b0014 	ldr	r0, [fp, -#20]
    c55c:	e3a01016 	mov	r1, #22	; 0x16
    c560:	ebfffabb 	bl	b054 <send_error>
    c564:	ea000014 	b	c5bc <do_debug+0xbc>
    c568:	e51b4018 	ldr	r4, [fp, -#24]
    c56c:	e51b0018 	ldr	r0, [fp, -#24]
    c570:	e3a01000 	mov	r1, #0	; 0x0
    c574:	ebfffa19 	bl	ade0 <get_string>
    c578:	e1a02000 	mov	r2, r0
    c57c:	e5943020 	ldr	r3, [r4, #32]
    c580:	e0823003 	add	r3, r2, r3
    c584:	e59f0038 	ldr	r0, [pc, #56]	; c5c4 <do_debug+0xc4>
    c588:	e1a01003 	mov	r1, r3
    c58c:	eb001be0 	bl	13514 <xprintf>
    c590:	e51b3018 	ldr	r3, [fp, -#24]
    c594:	e5930020 	ldr	r0, [r3, #32]
    c598:	e59f1028 	ldr	r1, [pc, #40]	; c5c8 <do_debug+0xc8>
    c59c:	ebfff2fc 	bl	9194 <_init+0x94>
    c5a0:	e1a03000 	mov	r3, r0
    c5a4:	e3530000 	cmp	r3, #0	; 0x0
    c5a8:	1a000000 	bne	c5b0 <do_debug+0xb0>
    c5ac:	eb00049b 	bl	d820 <check_store>
    c5b0:	e51b0014 	ldr	r0, [fp, -#20]
    c5b4:	e3a01000 	mov	r1, #0	; 0x0
    c5b8:	ebfffa98 	bl	b020 <send_ack>
    c5bc:	e91ba810 	ldmdb	fp, {r4, fp, sp, pc}
    c5c0:	0001abec 	andeq	sl, r1, ip, ror #23
    c5c4:	0001abf4 	streqd	sl, [r1], -r4
    c5c8:	0001ac00 	andeq	sl, r1, r0, lsl #24

0000c5cc <process_message>:
    c5cc:	e1a0c00d 	mov	ip, sp
    c5d0:	e92dd800 	stmdb	sp!, {fp, ip, lr, pc}
    c5d4:	e24cb004 	sub	fp, ip, #4	; 0x4
    c5d8:	e24dd00c 	sub	sp, sp, #12	; 0xc
    c5dc:	e50b0010 	str	r0, [fp, -#16]
    c5e0:	e50b1014 	str	r1, [fp, -#20]
    c5e4:	e51b3014 	ldr	r3, [fp, -#20]
    c5e8:	e51b0010 	ldr	r0, [fp, -#16]
    c5ec:	e5931018 	ldr	r1, [r3, #24]
    c5f0:	eb000f57 	bl	10354 <transaction_lookup>
    c5f4:	e1a03000 	mov	r3, r0
    c5f8:	e50b3018 	str	r3, [fp, -#24]
    c5fc:	e51b0018 	ldr	r0, [fp, -#24]
    c600:	eb0007e1 	bl	e58c <IS_ERR>
    c604:	e1a03000 	mov	r3, r0
    c608:	e3530000 	cmp	r3, #0	; 0x0
    c60c:	0a000007 	beq	c630 <process_message+0x64>
    c610:	e51b0018 	ldr	r0, [fp, -#24]
    c614:	eb0007d4 	bl	e56c <PTR_ERR>
    c618:	e1a03000 	mov	r3, r0
    c61c:	e2633000 	rsb	r3, r3, #0	; 0x0
    c620:	e51b0010 	ldr	r0, [fp, -#16]
    c624:	e1a01003 	mov	r1, r3
    c628:	ebfffa89 	bl	b054 <send_error>
    c62c:	ea00007f 	b	c830 <process_message+0x264>
    c630:	e51b2010 	ldr	r2, [fp, -#16]
    c634:	e51b3018 	ldr	r3, [fp, -#24]
    c638:	e5823020 	str	r3, [r2, #32]
    c63c:	e51b3014 	ldr	r3, [fp, -#20]
    c640:	e5933010 	ldr	r3, [r3, #16]
    c644:	e3530011 	cmp	r3, #17	; 0x11
    c648:	979ff103 	ldrls	pc, [pc, r3, lsl #2]
    c64c:	ea00006c 	b	c804 <process_message+0x238>
    c650:	0000c744 	andeq	ip, r0, r4, asr #14
    c654:	0000c698 	muleq	r0, r8, r6
    c658:	0000c6b4 	streqh	ip, [r0], -r4
    c65c:	0000c718 	andeq	ip, r0, r8, lsl r7
    c660:	0000c754 	andeq	ip, r0, r4, asr r7
    c664:	0000c764 	andeq	ip, r0, r4, ror #14
    c668:	0000c774 	andeq	ip, r0, r4, ror r7
    c66c:	0000c784 	andeq	ip, r0, r4, lsl #15
    c670:	0000c7a0 	andeq	ip, r0, r0, lsr #15
    c674:	0000c7cc 	andeq	ip, r0, ip, asr #15
    c678:	0000c7e8 	andeq	ip, r0, r8, ror #15
    c67c:	0000c6d0 	ldreqd	ip, [r0], -r0
    c680:	0000c6e0 	andeq	ip, r0, r0, ror #13
    c684:	0000c6fc 	streqd	ip, [r0], -ip
    c688:	0000c734 	andeq	ip, r0, r4, lsr r7
    c68c:	0000c804 	andeq	ip, r0, r4, lsl #16
    c690:	0000c804 	andeq	ip, r0, r4, lsl #16
    c694:	0000c7b0 	streqh	ip, [r0], -r0
    c698:	e51b0014 	ldr	r0, [fp, -#20]
    c69c:	ebfffae9 	bl	b248 <onearg>
    c6a0:	e1a03000 	mov	r3, r0
    c6a4:	e51b0010 	ldr	r0, [fp, -#16]
    c6a8:	e1a01003 	mov	r1, r3
    c6ac:	ebfffb94 	bl	b504 <send_directory>
    c6b0:	ea00005b 	b	c824 <process_message+0x258>
    c6b4:	e51b0014 	ldr	r0, [fp, -#20]
    c6b8:	ebfffae2 	bl	b248 <onearg>
    c6bc:	e1a03000 	mov	r3, r0
    c6c0:	e51b0010 	ldr	r0, [fp, -#16]
    c6c4:	e1a01003 	mov	r1, r3
    c6c8:	ebfffbae 	bl	b588 <do_read>
    c6cc:	ea000054 	b	c824 <process_message+0x258>
    c6d0:	e51b0010 	ldr	r0, [fp, -#16]
    c6d4:	e51b1014 	ldr	r1, [fp, -#20]
    c6d8:	ebfffcf0 	bl	baa0 <do_write>
    c6dc:	ea000050 	b	c824 <process_message+0x258>
    c6e0:	e51b0014 	ldr	r0, [fp, -#20]
    c6e4:	ebfffad7 	bl	b248 <onearg>
    c6e8:	e1a03000 	mov	r3, r0
    c6ec:	e51b0010 	ldr	r0, [fp, -#16]
    c6f0:	e1a01003 	mov	r1, r3
    c6f4:	ebfffd57 	bl	bc58 <do_mkdir>
    c6f8:	ea000049 	b	c824 <process_message+0x258>
    c6fc:	e51b0014 	ldr	r0, [fp, -#20]
    c700:	ebfffad0 	bl	b248 <onearg>
    c704:	e1a03000 	mov	r3, r0
    c708:	e51b0010 	ldr	r0, [fp, -#16]
    c70c:	e1a01003 	mov	r1, r3
    c710:	ebfffe8d 	bl	c14c <do_rm>
    c714:	ea000042 	b	c824 <process_message+0x258>
    c718:	e51b0014 	ldr	r0, [fp, -#20]
    c71c:	ebfffac9 	bl	b248 <onearg>
    c720:	e1a03000 	mov	r3, r0
    c724:	e51b0010 	ldr	r0, [fp, -#16]
    c728:	e1a01003 	mov	r1, r3
    c72c:	ebfffed7 	bl	c290 <do_get_perms>
    c730:	ea00003b 	b	c824 <process_message+0x258>
    c734:	e51b0010 	ldr	r0, [fp, -#16]
    c738:	e51b1014 	ldr	r1, [fp, -#20]
    c73c:	ebffff05 	bl	c358 <do_set_perms>
    c740:	ea000037 	b	c824 <process_message+0x258>
    c744:	e51b0010 	ldr	r0, [fp, -#16]
    c748:	e51b1014 	ldr	r1, [fp, -#20]
    c74c:	ebffff6b 	bl	c500 <do_debug>
    c750:	ea000033 	b	c824 <process_message+0x258>
    c754:	e51b0010 	ldr	r0, [fp, -#16]
    c758:	e51b1014 	ldr	r1, [fp, -#20]
    c75c:	eb000897 	bl	e9c0 <do_watch>
    c760:	ea00002f 	b	c824 <process_message+0x258>
    c764:	e51b0010 	ldr	r0, [fp, -#16]
    c768:	e51b1014 	ldr	r1, [fp, -#20]
    c76c:	eb000947 	bl	ec90 <do_unwatch>
    c770:	ea00002b 	b	c824 <process_message+0x258>
    c774:	e51b0010 	ldr	r0, [fp, -#16]
    c778:	e51b1014 	ldr	r1, [fp, -#20]
    c77c:	eb000f21 	bl	10408 <do_transaction_start>
    c780:	ea000027 	b	c824 <process_message+0x258>
    c784:	e51b0014 	ldr	r0, [fp, -#20]
    c788:	ebfffaae 	bl	b248 <onearg>
    c78c:	e1a03000 	mov	r3, r0
    c790:	e51b0010 	ldr	r0, [fp, -#16]
    c794:	e1a01003 	mov	r1, r3
    c798:	eb000f92 	bl	105e8 <do_transaction_end>
    c79c:	ea000020 	b	c824 <process_message+0x258>
    c7a0:	e51b0010 	ldr	r0, [fp, -#16]
    c7a4:	e51b1014 	ldr	r1, [fp, -#20]
    c7a8:	eb000c0b 	bl	f7dc <do_introduce>
    c7ac:	ea00001c 	b	c824 <process_message+0x258>
    c7b0:	e51b0014 	ldr	r0, [fp, -#20]
    c7b4:	ebfffaa3 	bl	b248 <onearg>
    c7b8:	e1a03000 	mov	r3, r0
    c7bc:	e51b0010 	ldr	r0, [fp, -#16]
    c7c0:	e1a01003 	mov	r1, r3
    c7c4:	eb000ce3 	bl	fb58 <do_is_domain_introduced>
    c7c8:	ea000015 	b	c824 <process_message+0x258>
    c7cc:	e51b0014 	ldr	r0, [fp, -#20]
    c7d0:	ebfffa9c 	bl	b248 <onearg>
    c7d4:	e1a03000 	mov	r3, r0
    c7d8:	e51b0010 	ldr	r0, [fp, -#16]
    c7dc:	e1a01003 	mov	r1, r3
    c7e0:	eb000c7d 	bl	f9dc <do_release>
    c7e4:	ea00000e 	b	c824 <process_message+0x258>
    c7e8:	e51b0014 	ldr	r0, [fp, -#20]
    c7ec:	ebfffa95 	bl	b248 <onearg>
    c7f0:	e1a03000 	mov	r3, r0
    c7f4:	e51b0010 	ldr	r0, [fp, -#16]
    c7f8:	e1a01003 	mov	r1, r3
    c7fc:	eb000cb5 	bl	fad8 <do_get_domain_path>
    c800:	ea000007 	b	c824 <process_message+0x258>
    c804:	e51b3014 	ldr	r3, [fp, -#20]
    c808:	e59f0024 	ldr	r0, [pc, #36]	; c834 <process_message+0x268>
    c80c:	e59f1024 	ldr	r1, [pc, #36]	; c838 <process_message+0x26c>
    c810:	e5932010 	ldr	r2, [r3, #16]
    c814:	eb001b3e 	bl	13514 <xprintf>
    c818:	e51b0010 	ldr	r0, [fp, -#16]
    c81c:	e3a01026 	mov	r1, #38	; 0x26
    c820:	ebfffa0b 	bl	b054 <send_error>
    c824:	e51b2010 	ldr	r2, [fp, -#16]
    c828:	e3a03000 	mov	r3, #0	; 0x0
    c82c:	e5823020 	str	r3, [r2, #32]
    c830:	e91ba800 	ldmdb	fp, {fp, sp, pc}
    c834:	0001ac08 	andeq	sl, r1, r8, lsl #24
    c838:	0001ac2c 	andeq	sl, r1, ip, lsr #24

0000c83c <consider_message>:
    c83c:	e1a0c00d 	mov	ip, sp
    c840:	e92dd810 	stmdb	sp!, {r4, fp, ip, lr, pc}
    c844:	e24cb004 	sub	fp, ip, #4	; 0x4
    c848:	e24dd004 	sub	sp, sp, #4	; 0x4
    c84c:	e50b0014 	str	r0, [fp, -#20]
    c850:	e59f3068 	ldr	r3, [pc, #104]	; c8c0 <consider_message+0x84>
    c854:	e5d33000 	ldrb	r3, [r3]
    c858:	e3530000 	cmp	r3, #0	; 0x0
    c85c:	0a00000b 	beq	c890 <consider_message+0x54>
    c860:	e51b3014 	ldr	r3, [fp, -#20]
    c864:	e5933014 	ldr	r3, [r3, #20]
    c868:	e5930010 	ldr	r0, [r3, #16]
    c86c:	ebfff3d4 	bl	97c4 <sockmsg_string>
    c870:	e1a02000 	mov	r2, r0
    c874:	e51b3014 	ldr	r3, [fp, -#20]
    c878:	e5933014 	ldr	r3, [r3, #20]
    c87c:	e59f0040 	ldr	r0, [pc, #64]	; c8c4 <consider_message+0x88>
    c880:	e1a01002 	mov	r1, r2
    c884:	e593201c 	ldr	r2, [r3, #28]
    c888:	e51b3014 	ldr	r3, [fp, -#20]
    c88c:	eb001b20 	bl	13514 <xprintf>
    c890:	e51b3014 	ldr	r3, [fp, -#20]
    c894:	e51b0014 	ldr	r0, [fp, -#20]
    c898:	e5931014 	ldr	r1, [r3, #20]
    c89c:	ebffff4a 	bl	c5cc <process_message>
    c8a0:	e51b3014 	ldr	r3, [fp, -#20]
    c8a4:	e5930014 	ldr	r0, [r3, #20]
    c8a8:	eb0014d2 	bl	11bf8 <talloc_free>
    c8ac:	e51b4014 	ldr	r4, [fp, -#20]
    c8b0:	e51b0014 	ldr	r0, [fp, -#20]
    c8b4:	ebfff931 	bl	ad80 <new_buffer>
    c8b8:	e5840014 	str	r0, [r4, #20]
    c8bc:	e91ba810 	ldmdb	fp, {r4, fp, sp, pc}
    c8c0:	00024d14 	andeq	r4, r2, r4, lsl sp
    c8c4:	0001ac3c 	andeq	sl, r1, ip, lsr ip

0000c8c8 <handle_input>:
    c8c8:	e1a0c00d 	mov	ip, sp
    c8cc:	e92dd810 	stmdb	sp!, {r4, fp, ip, lr, pc}
    c8d0:	e24cb004 	sub	fp, ip, #4	; 0x4
    c8d4:	e24dd00c 	sub	sp, sp, #12	; 0xc
    c8d8:	e50b0014 	str	r0, [fp, -#20]
    c8dc:	e51b3014 	ldr	r3, [fp, -#20]
    c8e0:	e5933014 	ldr	r3, [r3, #20]
    c8e4:	e50b301c 	str	r3, [fp, -#28]
    c8e8:	e51b301c 	ldr	r3, [fp, -#28]
    c8ec:	e5d33008 	ldrb	r3, [r3, #8]
    c8f0:	e3530000 	cmp	r3, #0	; 0x0
    c8f4:	0a00003d 	beq	c9f0 <handle_input+0x128>
    c8f8:	e51b1014 	ldr	r1, [fp, -#20]
    c8fc:	e51b301c 	ldr	r3, [fp, -#28]
    c900:	e51b201c 	ldr	r2, [fp, -#28]
    c904:	e593300c 	ldr	r3, [r3, #12]
    c908:	e0823003 	add	r3, r2, r3
    c90c:	e2832010 	add	r2, r3, #16	; 0x10
    c910:	e51b301c 	ldr	r3, [fp, -#28]
    c914:	e593300c 	ldr	r3, [r3, #12]
    c918:	e2633010 	rsb	r3, r3, #16	; 0x10
    c91c:	e591c040 	ldr	ip, [r1, #64]
    c920:	e51b0014 	ldr	r0, [fp, -#20]
    c924:	e1a01002 	mov	r1, r2
    c928:	e1a02003 	mov	r2, r3
    c92c:	e1a0e00f 	mov	lr, pc
    c930:	e1a0f00c 	mov	pc, ip
    c934:	e1a03000 	mov	r3, r0
    c938:	e50b3018 	str	r3, [fp, -#24]
    c93c:	e51b3018 	ldr	r3, [fp, -#24]
    c940:	e3530000 	cmp	r3, #0	; 0x0
    c944:	ca000000 	bgt	c94c <handle_input+0x84>
    c948:	ea000053 	b	ca9c <handle_input+0x1d4>
    c94c:	e51b101c 	ldr	r1, [fp, -#28]
    c950:	e51b301c 	ldr	r3, [fp, -#28]
    c954:	e593200c 	ldr	r2, [r3, #12]
    c958:	e51b3018 	ldr	r3, [fp, -#24]
    c95c:	e0823003 	add	r3, r2, r3
    c960:	e581300c 	str	r3, [r1, #12]
    c964:	e51b301c 	ldr	r3, [fp, -#28]
    c968:	e593300c 	ldr	r3, [r3, #12]
    c96c:	e3530010 	cmp	r3, #16	; 0x10
    c970:	0a000000 	beq	c978 <handle_input+0xb0>
    c974:	ea00004a 	b	caa4 <handle_input+0x1dc>
    c978:	e51b301c 	ldr	r3, [fp, -#28]
    c97c:	e593301c 	ldr	r3, [r3, #28]
    c980:	e3530a01 	cmp	r3, #4096	; 0x1000
    c984:	9a000005 	bls	c9a0 <handle_input+0xd8>
    c988:	e51b301c 	ldr	r3, [fp, -#28]
    c98c:	e3a00003 	mov	r0, #3	; 0x3
    c990:	e59f1110 	ldr	r1, [pc, #272]	; caa8 <handle_input+0x1e0>
    c994:	e593201c 	ldr	r2, [r3, #28]
    c998:	ebfff265 	bl	9334 <_init+0x234>
    c99c:	ea00003e 	b	ca9c <handle_input+0x1d4>
    c9a0:	e51b401c 	ldr	r4, [fp, -#28]
    c9a4:	e51b301c 	ldr	r3, [fp, -#28]
    c9a8:	e51b001c 	ldr	r0, [fp, -#28]
    c9ac:	e3a01001 	mov	r1, #1	; 0x1
    c9b0:	e593201c 	ldr	r2, [r3, #28]
    c9b4:	e59f30f0 	ldr	r3, [pc, #240]	; caac <handle_input+0x1e4>
    c9b8:	eb0019c7 	bl	130dc <_talloc_array>
    c9bc:	e5840020 	str	r0, [r4, #32]
    c9c0:	e51b301c 	ldr	r3, [fp, -#28]
    c9c4:	e5933020 	ldr	r3, [r3, #32]
    c9c8:	e3530000 	cmp	r3, #0	; 0x0
    c9cc:	1a000000 	bne	c9d4 <handle_input+0x10c>
    c9d0:	ea000031 	b	ca9c <handle_input+0x1d4>
    c9d4:	e51b201c 	ldr	r2, [fp, -#28]
    c9d8:	e3a03000 	mov	r3, #0	; 0x0
    c9dc:	e582300c 	str	r3, [r2, #12]
    c9e0:	e51b201c 	ldr	r2, [fp, -#28]
    c9e4:	e3a03000 	mov	r3, #0	; 0x0
    c9e8:	e5c23008 	strb	r3, [r2, #8]
    c9ec:	ea00002c 	b	caa4 <handle_input+0x1dc>
    c9f0:	e51b0014 	ldr	r0, [fp, -#20]
    c9f4:	e51b301c 	ldr	r3, [fp, -#28]
    c9f8:	e51b201c 	ldr	r2, [fp, -#28]
    c9fc:	e5931020 	ldr	r1, [r3, #32]
    ca00:	e592300c 	ldr	r3, [r2, #12]
    ca04:	e081e003 	add	lr, r1, r3
    ca08:	e51b301c 	ldr	r3, [fp, -#28]
    ca0c:	e51b201c 	ldr	r2, [fp, -#28]
    ca10:	e593101c 	ldr	r1, [r3, #28]
    ca14:	e592300c 	ldr	r3, [r2, #12]
    ca18:	e0633001 	rsb	r3, r3, r1
    ca1c:	e590c040 	ldr	ip, [r0, #64]
    ca20:	e51b0014 	ldr	r0, [fp, -#20]
    ca24:	e1a0100e 	mov	r1, lr
    ca28:	e1a02003 	mov	r2, r3
    ca2c:	e1a0e00f 	mov	lr, pc
    ca30:	e1a0f00c 	mov	pc, ip
    ca34:	e1a03000 	mov	r3, r0
    ca38:	e50b3018 	str	r3, [fp, -#24]
    ca3c:	e51b3018 	ldr	r3, [fp, -#24]
    ca40:	e3530000 	cmp	r3, #0	; 0x0
    ca44:	aa000000 	bge	ca4c <handle_input+0x184>
    ca48:	ea000013 	b	ca9c <handle_input+0x1d4>
    ca4c:	e51b101c 	ldr	r1, [fp, -#28]
    ca50:	e51b301c 	ldr	r3, [fp, -#28]
    ca54:	e593200c 	ldr	r2, [r3, #12]
    ca58:	e51b3018 	ldr	r3, [fp, -#24]
    ca5c:	e0823003 	add	r3, r2, r3
    ca60:	e581300c 	str	r3, [r1, #12]
    ca64:	e51b301c 	ldr	r3, [fp, -#28]
    ca68:	e51b201c 	ldr	r2, [fp, -#28]
    ca6c:	e593100c 	ldr	r1, [r3, #12]
    ca70:	e592301c 	ldr	r3, [r2, #28]
    ca74:	e1510003 	cmp	r1, r3
    ca78:	0a000000 	beq	ca80 <handle_input+0x1b8>
    ca7c:	ea000008 	b	caa4 <handle_input+0x1dc>
    ca80:	e51b0014 	ldr	r0, [fp, -#20]
    ca84:	e59f1024 	ldr	r1, [pc, #36]	; cab0 <handle_input+0x1e8>
    ca88:	e51b201c 	ldr	r2, [fp, -#28]
    ca8c:	ebfff3eb 	bl	9a40 <trace_io>
    ca90:	e51b0014 	ldr	r0, [fp, -#20]
    ca94:	ebffff68 	bl	c83c <consider_message>
    ca98:	ea000001 	b	caa4 <handle_input+0x1dc>
    ca9c:	e51b0014 	ldr	r0, [fp, -#20]
    caa0:	eb001454 	bl	11bf8 <talloc_free>
    caa4:	e91ba810 	ldmdb	fp, {r4, fp, sp, pc}
    caa8:	0001ac5c 	andeq	sl, r1, ip, asr ip
    caac:	0001aab0 	streqh	sl, [r1], -r0
    cab0:	0001ac78 	andeq	sl, r1, r8, ror ip

0000cab4 <handle_output>:
    cab4:	e1a0c00d 	mov	ip, sp
    cab8:	e92dd800 	stmdb	sp!, {fp, ip, lr, pc}
    cabc:	e24cb004 	sub	fp, ip, #4	; 0x4
    cac0:	e24dd004 	sub	sp, sp, #4	; 0x4
    cac4:	e50b0010 	str	r0, [fp, -#16]
    cac8:	e51b0010 	ldr	r0, [fp, -#16]
    cacc:	ebfff480 	bl	9cd4 <write_messages>
    cad0:	e1a03000 	mov	r3, r0
    cad4:	e20330ff 	and	r3, r3, #255	; 0xff
    cad8:	e3530000 	cmp	r3, #0	; 0x0
    cadc:	1a000001 	bne	cae8 <handle_output+0x34>
    cae0:	e51b0010 	ldr	r0, [fp, -#16]
    cae4:	eb001443 	bl	11bf8 <talloc_free>
    cae8:	e91ba800 	ldmdb	fp, {fp, sp, pc}

0000caec <new_connection>:
    caec:	e1a0c00d 	mov	ip, sp
    caf0:	e92dd810 	stmdb	sp!, {r4, fp, ip, lr, pc}
    caf4:	e24cb004 	sub	fp, ip, #4	; 0x4
    caf8:	e24dd010 	sub	sp, sp, #16	; 0x10
    cafc:	e50b0014 	str	r0, [fp, -#20]
    cb00:	e50b1018 	str	r1, [fp, -#24]
    cb04:	eb0019e6 	bl	132a4 <talloc_autofree_context>
    cb08:	e1a03000 	mov	r3, r0
    cb0c:	e1a00003 	mov	r0, r3
    cb10:	e3a01044 	mov	r1, #68	; 0x44
    cb14:	e59f2144 	ldr	r2, [pc, #324]	; cc60 <new_connection+0x174>
    cb18:	eb001818 	bl	12b80 <_talloc_zero>
    cb1c:	e50b001c 	str	r0, [fp, -#28]
    cb20:	e51b301c 	ldr	r3, [fp, -#28]
    cb24:	e3530000 	cmp	r3, #0	; 0x0
    cb28:	1a000002 	bne	cb38 <new_connection+0x4c>
    cb2c:	e3a03000 	mov	r3, #0	; 0x0
    cb30:	e50b3020 	str	r3, [fp, -#32]
    cb34:	ea000047 	b	cc58 <new_connection+0x16c>
    cb38:	e51b201c 	ldr	r2, [fp, -#28]
    cb3c:	e3e03000 	mvn	r3, #0	; 0x0
    cb40:	e5823008 	str	r3, [r2, #8]
    cb44:	e51b201c 	ldr	r2, [fp, -#28]
    cb48:	e51b3014 	ldr	r3, [fp, -#20]
    cb4c:	e582303c 	str	r3, [r2, #60]
    cb50:	e51b201c 	ldr	r2, [fp, -#28]
    cb54:	e51b3018 	ldr	r3, [fp, -#24]
    cb58:	e5823040 	str	r3, [r2, #64]
    cb5c:	e51b201c 	ldr	r2, [fp, -#28]
    cb60:	e3a03001 	mov	r3, #1	; 0x1
    cb64:	e5c23010 	strb	r3, [r2, #16]
    cb68:	e3a02018 	mov	r2, #24	; 0x18
    cb6c:	e51b301c 	ldr	r3, [fp, -#28]
    cb70:	e0822003 	add	r2, r2, r3
    cb74:	e51b301c 	ldr	r3, [fp, -#28]
    cb78:	e2833018 	add	r3, r3, #24	; 0x18
    cb7c:	e5823000 	str	r3, [r2]
    cb80:	e3a02018 	mov	r2, #24	; 0x18
    cb84:	e51b301c 	ldr	r3, [fp, -#28]
    cb88:	e0822003 	add	r2, r2, r3
    cb8c:	e51b301c 	ldr	r3, [fp, -#28]
    cb90:	e2833018 	add	r3, r3, #24	; 0x18
    cb94:	e5823004 	str	r3, [r2, #4]
    cb98:	e3a02034 	mov	r2, #52	; 0x34
    cb9c:	e51b301c 	ldr	r3, [fp, -#28]
    cba0:	e0822003 	add	r2, r2, r3
    cba4:	e51b301c 	ldr	r3, [fp, -#28]
    cba8:	e2833034 	add	r3, r3, #52	; 0x34
    cbac:	e5823000 	str	r3, [r2]
    cbb0:	e3a02034 	mov	r2, #52	; 0x34
    cbb4:	e51b301c 	ldr	r3, [fp, -#28]
    cbb8:	e0822003 	add	r2, r2, r3
    cbbc:	e51b301c 	ldr	r3, [fp, -#28]
    cbc0:	e2833034 	add	r3, r3, #52	; 0x34
    cbc4:	e5823004 	str	r3, [r2, #4]
    cbc8:	e3a02024 	mov	r2, #36	; 0x24
    cbcc:	e51b301c 	ldr	r3, [fp, -#28]
    cbd0:	e0822003 	add	r2, r2, r3
    cbd4:	e51b301c 	ldr	r3, [fp, -#28]
    cbd8:	e2833024 	add	r3, r3, #36	; 0x24
    cbdc:	e5823000 	str	r3, [r2]
    cbe0:	e3a02024 	mov	r2, #36	; 0x24
    cbe4:	e51b301c 	ldr	r3, [fp, -#28]
    cbe8:	e0822003 	add	r2, r2, r3
    cbec:	e51b301c 	ldr	r3, [fp, -#28]
    cbf0:	e2833024 	add	r3, r3, #36	; 0x24
    cbf4:	e5823004 	str	r3, [r2, #4]
    cbf8:	e51b401c 	ldr	r4, [fp, -#28]
    cbfc:	e51b001c 	ldr	r0, [fp, -#28]
    cc00:	ebfff85e 	bl	ad80 <new_buffer>
    cc04:	e5840014 	str	r0, [r4, #20]
    cc08:	e51b301c 	ldr	r3, [fp, -#28]
    cc0c:	e5933014 	ldr	r3, [r3, #20]
    cc10:	e3530000 	cmp	r3, #0	; 0x0
    cc14:	1a000004 	bne	cc2c <new_connection+0x140>
    cc18:	e51b001c 	ldr	r0, [fp, -#28]
    cc1c:	eb0013f5 	bl	11bf8 <talloc_free>
    cc20:	e3a03000 	mov	r3, #0	; 0x0
    cc24:	e50b3020 	str	r3, [fp, -#32]
    cc28:	ea00000a 	b	cc58 <new_connection+0x16c>
    cc2c:	e51b001c 	ldr	r0, [fp, -#28]
    cc30:	e59f102c 	ldr	r1, [pc, #44]	; cc64 <new_connection+0x178>
    cc34:	eb00065f 	bl	e5b8 <list_add_tail>
    cc38:	e51b001c 	ldr	r0, [fp, -#28]
    cc3c:	e59f1024 	ldr	r1, [pc, #36]	; cc68 <new_connection+0x17c>
    cc40:	eb00116e 	bl	11200 <talloc_set_destructor>
    cc44:	e51b001c 	ldr	r0, [fp, -#28]
    cc48:	e59f101c 	ldr	r1, [pc, #28]	; cc6c <new_connection+0x180>
    cc4c:	ebfff3d4 	bl	9ba4 <trace_create>
    cc50:	e51b301c 	ldr	r3, [fp, -#28]
    cc54:	e50b3020 	str	r3, [fp, -#32]
    cc58:	e51b0020 	ldr	r0, [fp, -#32]
    cc5c:	e91ba810 	ldmdb	fp, {r4, fp, sp, pc}
    cc60:	0001ac7c 	andeq	sl, r1, ip, ror ip
    cc64:	00024800 	andeq	r4, r2, r0, lsl #16
    cc68:	00009f4c 	andeq	r9, r0, ip, asr #30
    cc6c:	0001a9e0 	andeq	sl, r1, r0, ror #19

0000cc70 <writefd>:
    cc70:	e1a0c00d 	mov	ip, sp
    cc74:	e92dd800 	stmdb	sp!, {fp, ip, lr, pc}
    cc78:	e24cb004 	sub	fp, ip, #4	; 0x4
    cc7c:	e24dd00c 	sub	sp, sp, #12	; 0xc
    cc80:	e50b0010 	str	r0, [fp, -#16]
    cc84:	e50b1014 	str	r1, [fp, -#20]
    cc88:	e50b2018 	str	r2, [fp, -#24]
    cc8c:	e51b3010 	ldr	r3, [fp, -#16]
    cc90:	e5930008 	ldr	r0, [r3, #8]
    cc94:	e51b1014 	ldr	r1, [fp, -#20]
    cc98:	e51b2018 	ldr	r2, [fp, -#24]
    cc9c:	ebfff134 	bl	9174 <_init+0x74>
    cca0:	e1a03000 	mov	r3, r0
    cca4:	e1a00003 	mov	r0, r3
    cca8:	e91ba800 	ldmdb	fp, {fp, sp, pc}

0000ccac <readfd>:
    ccac:	e1a0c00d 	mov	ip, sp
    ccb0:	e92dd800 	stmdb	sp!, {fp, ip, lr, pc}
    ccb4:	e24cb004 	sub	fp, ip, #4	; 0x4
    ccb8:	e24dd00c 	sub	sp, sp, #12	; 0xc
    ccbc:	e50b0010 	str	r0, [fp, -#16]
    ccc0:	e50b1014 	str	r1, [fp, -#20]
    ccc4:	e50b2018 	str	r2, [fp, -#24]
    ccc8:	e51b3010 	ldr	r3, [fp, -#16]
    cccc:	e5930008 	ldr	r0, [r3, #8]
    ccd0:	e51b1014 	ldr	r1, [fp, -#20]
    ccd4:	e51b2018 	ldr	r2, [fp, -#24]
    ccd8:	ebfff239 	bl	95c4 <_init+0x4c4>
    ccdc:	e1a03000 	mov	r3, r0
    cce0:	e1a00003 	mov	r0, r3
    cce4:	e91ba800 	ldmdb	fp, {fp, sp, pc}

0000cce8 <accept_connection>:
    cce8:	e1a0c00d 	mov	ip, sp
    ccec:	e92dd800 	stmdb	sp!, {fp, ip, lr, pc}
    ccf0:	e24cb004 	sub	fp, ip, #4	; 0x4
    ccf4:	e24dd010 	sub	sp, sp, #16	; 0x10
    ccf8:	e50b0010 	str	r0, [fp, -#16]
    ccfc:	e1a03001 	mov	r3, r1
    cd00:	e54b3011 	strb	r3, [fp, -#17]
    cd04:	e51b0010 	ldr	r0, [fp, -#16]
    cd08:	e3a01000 	mov	r1, #0	; 0x0
    cd0c:	e3a02000 	mov	r2, #0	; 0x0
    cd10:	ebfff167 	bl	92b4 <_init+0x1b4>
    cd14:	e1a03000 	mov	r3, r0
    cd18:	e50b3018 	str	r3, [fp, -#24]
    cd1c:	e51b3018 	ldr	r3, [fp, -#24]
    cd20:	e3530000 	cmp	r3, #0	; 0x0
    cd24:	aa000000 	bge	cd2c <accept_connection+0x44>
    cd28:	ea000010 	b	cd70 <accept_connection+0x88>
    cd2c:	e59f0040 	ldr	r0, [pc, #64]	; cd74 <accept_connection+0x8c>
    cd30:	e59f1040 	ldr	r1, [pc, #64]	; cd78 <accept_connection+0x90>
    cd34:	ebffff6c 	bl	caec <new_connection>
    cd38:	e1a03000 	mov	r3, r0
    cd3c:	e50b301c 	str	r3, [fp, -#28]
    cd40:	e51b301c 	ldr	r3, [fp, -#28]
    cd44:	e3530000 	cmp	r3, #0	; 0x0
    cd48:	0a000006 	beq	cd68 <accept_connection+0x80>
    cd4c:	e51b201c 	ldr	r2, [fp, -#28]
    cd50:	e51b3018 	ldr	r3, [fp, -#24]
    cd54:	e5823008 	str	r3, [r2, #8]
    cd58:	e51b201c 	ldr	r2, [fp, -#28]
    cd5c:	e55b3011 	ldrb	r3, [fp, -#17]
    cd60:	e5c23010 	strb	r3, [r2, #16]
    cd64:	ea000001 	b	cd70 <accept_connection+0x88>
    cd68:	e51b0018 	ldr	r0, [fp, -#24]
    cd6c:	ebfff10c 	bl	91a4 <_init+0xa4>
    cd70:	e91ba800 	ldmdb	fp, {fp, sp, pc}
    cd74:	0000cc70 	andeq	ip, r0, r0, ror ip
    cd78:	0000ccac 	andeq	ip, r0, ip, lsr #25

0000cd7c <manual_node>:
    cd7c:	e1a0c00d 	mov	ip, sp
    cd80:	e92dd810 	stmdb	sp!, {r4, fp, ip, lr, pc}
    cd84:	e24cb004 	sub	fp, ip, #4	; 0x4
    cd88:	e24dd014 	sub	sp, sp, #20	; 0x14
    cd8c:	e50b0014 	str	r0, [fp, -#20]
    cd90:	e50b1018 	str	r1, [fp, -#24]
    cd94:	e3e03013 	mvn	r3, #19	; 0x13
    cd98:	e24b1010 	sub	r1, fp, #16	; 0x10
    cd9c:	e0813003 	add	r3, r1, r3
    cda0:	e3a02000 	mov	r2, #0	; 0x0
    cda4:	e3a01000 	mov	r1, #0	; 0x0
    cda8:	e8830006 	stmia	r3, {r1, r2}
    cdac:	e3a00000 	mov	r0, #0	; 0x0
    cdb0:	e3a01024 	mov	r1, #36	; 0x24
    cdb4:	e59f208c 	ldr	r2, [pc, #140]	; ce48 <manual_node+0xcc>
    cdb8:	eb001770 	bl	12b80 <_talloc_zero>
    cdbc:	e50b001c 	str	r0, [fp, -#28]
    cdc0:	e51b201c 	ldr	r2, [fp, -#28]
    cdc4:	e51b3014 	ldr	r3, [fp, -#20]
    cdc8:	e5823000 	str	r3, [r2]
    cdcc:	e51b201c 	ldr	r2, [fp, -#28]
    cdd0:	e24b3024 	sub	r3, fp, #36	; 0x24
    cdd4:	e5823010 	str	r3, [r2, #16]
    cdd8:	e51b201c 	ldr	r2, [fp, -#28]
    cddc:	e3a03001 	mov	r3, #1	; 0x1
    cde0:	e582300c 	str	r3, [r2, #12]
    cde4:	e51b201c 	ldr	r2, [fp, -#28]
    cde8:	e51b3018 	ldr	r3, [fp, -#24]
    cdec:	e5823020 	str	r3, [r2, #32]
    cdf0:	e51b3018 	ldr	r3, [fp, -#24]
    cdf4:	e3530000 	cmp	r3, #0	; 0x0
    cdf8:	0a000005 	beq	ce14 <manual_node+0x98>
    cdfc:	e51b401c 	ldr	r4, [fp, -#28]
    ce00:	e51b0018 	ldr	r0, [fp, -#24]
    ce04:	ebfff172 	bl	93d4 <_init+0x2d4>
    ce08:	e1a03000 	mov	r3, r0
    ce0c:	e2833001 	add	r3, r3, #1	; 0x1
    ce10:	e584301c 	str	r3, [r4, #28]
    ce14:	e3a00000 	mov	r0, #0	; 0x0
    ce18:	e51b101c 	ldr	r1, [fp, -#28]
    ce1c:	ebfff63f 	bl	a720 <write_node>
    ce20:	e1a03000 	mov	r3, r0
    ce24:	e20330ff 	and	r3, r3, #255	; 0xff
    ce28:	e3530000 	cmp	r3, #0	; 0x0
    ce2c:	1a000002 	bne	ce3c <manual_node+0xc0>
    ce30:	e59f0014 	ldr	r0, [pc, #20]	; ce4c <manual_node+0xd0>
    ce34:	e51b1014 	ldr	r1, [fp, -#20]
    ce38:	eb0019e6 	bl	135d8 <barf_perror>
    ce3c:	e51b001c 	ldr	r0, [fp, -#28]
    ce40:	eb00136c 	bl	11bf8 <talloc_free>
    ce44:	e91ba810 	ldmdb	fp, {r4, fp, sp, pc}
    ce48:	0001aa14 	andeq	sl, r1, r4, lsl sl
    ce4c:	0001ac90 	muleq	r1, r0, ip

0000ce50 <s_do_get_perms>:
    ce50:	e1a0c00d 	mov	ip, sp
    ce54:	e92dd800 	stmdb	sp!, {fp, ip, lr, pc}
    ce58:	e24cb004 	sub	fp, ip, #4	; 0x4
    ce5c:	e24dd010 	sub	sp, sp, #16	; 0x10
    ce60:	e50b0010 	str	r0, [fp, -#16]
    ce64:	e50b1014 	str	r1, [fp, -#20]
    ce68:	e51b0010 	ldr	r0, [fp, -#16]
    ce6c:	e51b1014 	ldr	r1, [fp, -#20]
    ce70:	ebfff95e 	bl	b3f0 <canonicalize>
    ce74:	e50b0014 	str	r0, [fp, -#20]
    ce78:	e51b0010 	ldr	r0, [fp, -#16]
    ce7c:	e51b1014 	ldr	r1, [fp, -#20]
    ce80:	ebfff594 	bl	a4d8 <read_node>
    ce84:	e1a03000 	mov	r3, r0
    ce88:	e50b3018 	str	r3, [fp, -#24]
    ce8c:	e51b3018 	ldr	r3, [fp, -#24]
    ce90:	e3530000 	cmp	r3, #0	; 0x0
    ce94:	1a000005 	bne	ceb0 <s_do_get_perms+0x60>
    ce98:	ebfff0fd 	bl	9294 <_init+0x194>
    ce9c:	e1a03000 	mov	r3, r0
    cea0:	e51b0010 	ldr	r0, [fp, -#16]
    cea4:	e5931000 	ldr	r1, [r3]
    cea8:	ebfff869 	bl	b054 <send_error>
    ceac:	ea00002e 	b	cf6c <s_do_get_perms+0x11c>
    ceb0:	e3a03000 	mov	r3, #0	; 0x0
    ceb4:	e50b301c 	str	r3, [fp, -#28]
    ceb8:	e51b3018 	ldr	r3, [fp, -#24]
    cebc:	e51b201c 	ldr	r2, [fp, -#28]
    cec0:	e593300c 	ldr	r3, [r3, #12]
    cec4:	e1520003 	cmp	r2, r3
    cec8:	3a000000 	bcc	ced0 <s_do_get_perms+0x80>
    cecc:	ea000026 	b	cf6c <s_do_get_perms+0x11c>
    ced0:	e51b1018 	ldr	r1, [fp, -#24]
    ced4:	e51b301c 	ldr	r3, [fp, -#28]
    ced8:	e1a02183 	mov	r2, r3, lsl #3
    cedc:	e5913010 	ldr	r3, [r1, #16]
    cee0:	e0823003 	add	r3, r2, r3
    cee4:	e59f0084 	ldr	r0, [pc, #132]	; cf70 <s_do_get_perms+0x120>
    cee8:	e5931000 	ldr	r1, [r3]
    ceec:	ebfff160 	bl	9474 <_init+0x374>
    cef0:	e51b1018 	ldr	r1, [fp, -#24]
    cef4:	e51b301c 	ldr	r3, [fp, -#28]
    cef8:	e1a02183 	mov	r2, r3, lsl #3
    cefc:	e5913010 	ldr	r3, [r1, #16]
    cf00:	e0823003 	add	r3, r2, r3
    cf04:	e5933004 	ldr	r3, [r3, #4]
    cf08:	e3530003 	cmp	r3, #3	; 0x3
    cf0c:	979ff103 	ldrls	pc, [pc, r3, lsl #2]
    cf10:	ea00000f 	b	cf54 <s_do_get_perms+0x104>
    cf14:	0000cf48 	andeq	ip, r0, r8, asr #30
    cf18:	0000cf24 	andeq	ip, r0, r4, lsr #30
    cf1c:	0000cf30 	andeq	ip, r0, r0, lsr pc
    cf20:	0000cf3c 	andeq	ip, r0, ip, lsr pc
    cf24:	e59f0048 	ldr	r0, [pc, #72]	; cf74 <s_do_get_perms+0x124>
    cf28:	ebfff151 	bl	9474 <_init+0x374>
    cf2c:	ea00000a 	b	cf5c <s_do_get_perms+0x10c>
    cf30:	e59f0040 	ldr	r0, [pc, #64]	; cf78 <s_do_get_perms+0x128>
    cf34:	ebfff14e 	bl	9474 <_init+0x374>
    cf38:	ea000007 	b	cf5c <s_do_get_perms+0x10c>
    cf3c:	e59f0038 	ldr	r0, [pc, #56]	; cf7c <s_do_get_perms+0x12c>
    cf40:	ebfff14b 	bl	9474 <_init+0x374>
    cf44:	ea000004 	b	cf5c <s_do_get_perms+0x10c>
    cf48:	e59f0030 	ldr	r0, [pc, #48]	; cf80 <s_do_get_perms+0x130>
    cf4c:	ebfff148 	bl	9474 <_init+0x374>
    cf50:	ea000001 	b	cf5c <s_do_get_perms+0x10c>
    cf54:	e59f0028 	ldr	r0, [pc, #40]	; cf84 <s_do_get_perms+0x134>
    cf58:	ebfff145 	bl	9474 <_init+0x374>
    cf5c:	e51b301c 	ldr	r3, [fp, -#28]
    cf60:	e2833001 	add	r3, r3, #1	; 0x1
    cf64:	e50b301c 	str	r3, [fp, -#28]
    cf68:	eaffffd2 	b	ceb8 <s_do_get_perms+0x68>
    cf6c:	e91ba800 	ldmdb	fp, {fp, sp, pc}
    cf70:	0001acb4 	streqh	sl, [r1], -r4
    cf74:	0001acc0 	andeq	sl, r1, r0, asr #25
    cf78:	0001acdc 	ldreqd	sl, [r1], -ip
    cf7c:	0001acf8 	streqd	sl, [r1], -r8
    cf80:	0001ad14 	andeq	sl, r1, r4, lsl sp
    cf84:	0001ad28 	andeq	sl, r1, r8, lsr #26

0000cf88 <s_do_set_perms>:
    cf88:	e1a0c00d 	mov	ip, sp
    cf8c:	e92dd810 	stmdb	sp!, {r4, fp, ip, lr, pc}
    cf90:	e24cb004 	sub	fp, ip, #4	; 0x4
    cf94:	e24dd010 	sub	sp, sp, #16	; 0x10
    cf98:	e50b0014 	str	r0, [fp, -#20]
    cf9c:	e50b1018 	str	r1, [fp, -#24]
    cfa0:	e3a03002 	mov	r3, #2	; 0x2
    cfa4:	e50b3020 	str	r3, [fp, -#32]
    cfa8:	e51b0014 	ldr	r0, [fp, -#20]
    cfac:	e51b1018 	ldr	r1, [fp, -#24]
    cfb0:	ebfff90e 	bl	b3f0 <canonicalize>
    cfb4:	e50b0018 	str	r0, [fp, -#24]
    cfb8:	e51b0014 	ldr	r0, [fp, -#20]
    cfbc:	e51b1018 	ldr	r1, [fp, -#24]
    cfc0:	ebfff544 	bl	a4d8 <read_node>
    cfc4:	e1a03000 	mov	r3, r0
    cfc8:	e50b301c 	str	r3, [fp, -#28]
    cfcc:	e51b301c 	ldr	r3, [fp, -#28]
    cfd0:	e3530000 	cmp	r3, #0	; 0x0
    cfd4:	1a000003 	bne	cfe8 <s_do_set_perms+0x60>
    cfd8:	e59f00b0 	ldr	r0, [pc, #176]	; d090 <s_do_set_perms+0x108>
    cfdc:	ebfff124 	bl	9474 <_init+0x374>
    cfe0:	e3a00001 	mov	r0, #1	; 0x1
    cfe4:	ebfff14a 	bl	9514 <_init+0x414>
    cfe8:	e51b401c 	ldr	r4, [fp, -#28]
    cfec:	e51b001c 	ldr	r0, [fp, -#28]
    cff0:	e3a01008 	mov	r1, #8	; 0x8
    cff4:	e51b2020 	ldr	r2, [fp, -#32]
    cff8:	e59f3094 	ldr	r3, [pc, #148]	; d094 <s_do_set_perms+0x10c>
    cffc:	eb001836 	bl	130dc <_talloc_array>
    d000:	e5840010 	str	r0, [r4, #16]
    d004:	e51b201c 	ldr	r2, [fp, -#28]
    d008:	e51b3020 	ldr	r3, [fp, -#32]
    d00c:	e582300c 	str	r3, [r2, #12]
    d010:	e51b301c 	ldr	r3, [fp, -#28]
    d014:	e5932010 	ldr	r2, [r3, #16]
    d018:	e3a03000 	mov	r3, #0	; 0x0
    d01c:	e5823000 	str	r3, [r2]
    d020:	e51b301c 	ldr	r3, [fp, -#28]
    d024:	e5932010 	ldr	r2, [r3, #16]
    d028:	e3a03002 	mov	r3, #2	; 0x2
    d02c:	e5823004 	str	r3, [r2, #4]
    d030:	e51b301c 	ldr	r3, [fp, -#28]
    d034:	e3a02008 	mov	r2, #8	; 0x8
    d038:	e5933010 	ldr	r3, [r3, #16]
    d03c:	e0822003 	add	r2, r2, r3
    d040:	e3a03001 	mov	r3, #1	; 0x1
    d044:	e5823000 	str	r3, [r2]
    d048:	e51b301c 	ldr	r3, [fp, -#28]
    d04c:	e3a02008 	mov	r2, #8	; 0x8
    d050:	e5933010 	ldr	r3, [r3, #16]
    d054:	e0822003 	add	r2, r2, r3
    d058:	e3a03001 	mov	r3, #1	; 0x1
    d05c:	e5823004 	str	r3, [r2, #4]
    d060:	e51b0014 	ldr	r0, [fp, -#20]
    d064:	e51b101c 	ldr	r1, [fp, -#28]
    d068:	ebfff5ac 	bl	a720 <write_node>
    d06c:	e1a03000 	mov	r3, r0
    d070:	e20330ff 	and	r3, r3, #255	; 0xff
    d074:	e3530000 	cmp	r3, #0	; 0x0
    d078:	1a000003 	bne	d08c <s_do_set_perms+0x104>
    d07c:	e59f0014 	ldr	r0, [pc, #20]	; d098 <s_do_set_perms+0x110>
    d080:	ebfff0fb 	bl	9474 <_init+0x374>
    d084:	e3a00001 	mov	r0, #1	; 0x1
    d088:	ebfff121 	bl	9514 <_init+0x414>
    d08c:	e91ba810 	ldmdb	fp, {r4, fp, sp, pc}
    d090:	0001ad44 	andeq	sl, r1, r4, asr #26
    d094:	0001abd4 	ldreqd	sl, [r1], -r4
    d098:	0001ad68 	andeq	sl, r1, r8, ror #26

0000d09c <setup_structure>:
    d09c:	e1a0c00d 	mov	ip, sp
    d0a0:	e92dd810 	stmdb	sp!, {r4, fp, ip, lr, pc}
    d0a4:	e24cb004 	sub	fp, ip, #4	; 0x4
    d0a8:	e24dd018 	sub	sp, sp, #24	; 0x18
    d0ac:	eb00187c 	bl	132a4 <talloc_autofree_context>
    d0b0:	e1a04000 	mov	r4, r0
    d0b4:	eb000e5c 	bl	10a2c <xs_daemon_tdb>
    d0b8:	e1a03000 	mov	r3, r0
    d0bc:	e1a00004 	mov	r0, r4
    d0c0:	e1a01003 	mov	r1, r3
    d0c4:	eb0016dc 	bl	12c3c <talloc_strdup>
    d0c8:	e1a03000 	mov	r3, r0
    d0cc:	e50b3014 	str	r3, [fp, -#20]
    d0d0:	e3a03000 	mov	r3, #0	; 0x0
    d0d4:	e58d3000 	str	r3, [sp]
    d0d8:	e51b0014 	ldr	r0, [fp, -#20]
    d0dc:	e3a01000 	mov	r1, #0	; 0x0
    d0e0:	e3a02000 	mov	r2, #0	; 0x0
    d0e4:	e3a03002 	mov	r3, #2	; 0x2
    d0e8:	eb002c3e 	bl	181e8 <tdb_open>
    d0ec:	e1a02000 	mov	r2, r0
    d0f0:	e59f3180 	ldr	r3, [pc, #384]	; d278 <setup_structure+0x1dc>
    d0f4:	e5832000 	str	r2, [r3]
    d0f8:	e59f3178 	ldr	r3, [pc, #376]	; d278 <setup_structure+0x1dc>
    d0fc:	e5933000 	ldr	r3, [r3]
    d100:	e3530000 	cmp	r3, #0	; 0x0
    d104:	0a00003d 	beq	d200 <setup_structure+0x164>
    d108:	e59f016c 	ldr	r0, [pc, #364]	; d27c <setup_structure+0x1e0>
    d10c:	ebfff0d8 	bl	9474 <_init+0x374>
    d110:	e3a00000 	mov	r0, #0	; 0x0
    d114:	e59f1164 	ldr	r1, [pc, #356]	; d280 <setup_structure+0x1e4>
    d118:	eb0016c7 	bl	12c3c <talloc_strdup>
    d11c:	e1a03000 	mov	r3, r0
    d120:	e50b3018 	str	r3, [fp, -#24]
    d124:	eb0001bd 	bl	d820 <check_store>
    d128:	e59f3154 	ldr	r3, [pc, #340]	; d284 <setup_structure+0x1e8>
    d12c:	e5d33000 	ldrb	r3, [r3]
    d130:	e3530000 	cmp	r3, #0	; 0x0
    d134:	0a000007 	beq	d158 <setup_structure+0xbc>
    d138:	e59f0140 	ldr	r0, [pc, #320]	; d280 <setup_structure+0x1e4>
    d13c:	ebfffbe7 	bl	c0e0 <internal_rm>
    d140:	e3a00000 	mov	r0, #0	; 0x0
    d144:	e51b1018 	ldr	r1, [fp, -#24]
    d148:	e3a02000 	mov	r2, #0	; 0x0
    d14c:	e3a03000 	mov	r3, #0	; 0x0
    d150:	ebfffa10 	bl	b998 <create_node>
    d154:	eb0001b1 	bl	d820 <check_store>
    d158:	e51b0018 	ldr	r0, [fp, -#24]
    d15c:	eb0012a5 	bl	11bf8 <talloc_free>
    d160:	e3a00000 	mov	r0, #0	; 0x0
    d164:	e59f111c 	ldr	r1, [pc, #284]	; d288 <setup_structure+0x1ec>
    d168:	eb0016b3 	bl	12c3c <talloc_strdup>
    d16c:	e1a03000 	mov	r3, r0
    d170:	e50b301c 	str	r3, [fp, -#28]
    d174:	eb0001a9 	bl	d820 <check_store>
    d178:	e3a00000 	mov	r0, #0	; 0x0
    d17c:	e51b101c 	ldr	r1, [fp, -#28]
    d180:	e3a02000 	mov	r2, #0	; 0x0
    d184:	e3a03000 	mov	r3, #0	; 0x0
    d188:	ebfffa02 	bl	b998 <create_node>
    d18c:	eb0001a3 	bl	d820 <check_store>
    d190:	e51b001c 	ldr	r0, [fp, -#28]
    d194:	eb001297 	bl	11bf8 <talloc_free>
    d198:	e3a00000 	mov	r0, #0	; 0x0
    d19c:	e59f10e4 	ldr	r1, [pc, #228]	; d288 <setup_structure+0x1ec>
    d1a0:	eb0016a5 	bl	12c3c <talloc_strdup>
    d1a4:	e1a03000 	mov	r3, r0
    d1a8:	e50b3020 	str	r3, [fp, -#32]
    d1ac:	eb00019b 	bl	d820 <check_store>
    d1b0:	e3a00000 	mov	r0, #0	; 0x0
    d1b4:	e51b1020 	ldr	r1, [fp, -#32]
    d1b8:	ebffff24 	bl	ce50 <s_do_get_perms>
    d1bc:	e51b0020 	ldr	r0, [fp, -#32]
    d1c0:	eb00128c 	bl	11bf8 <talloc_free>
    d1c4:	e3a00000 	mov	r0, #0	; 0x0
    d1c8:	e59f10b8 	ldr	r1, [pc, #184]	; d288 <setup_structure+0x1ec>
    d1cc:	eb00169a 	bl	12c3c <talloc_strdup>
    d1d0:	e1a03000 	mov	r3, r0
    d1d4:	e50b3024 	str	r3, [fp, -#36]
    d1d8:	eb000190 	bl	d820 <check_store>
    d1dc:	e3a00000 	mov	r0, #0	; 0x0
    d1e0:	e51b1024 	ldr	r1, [fp, -#36]
    d1e4:	ebffff67 	bl	cf88 <s_do_set_perms>
    d1e8:	e3a00000 	mov	r0, #0	; 0x0
    d1ec:	e51b1024 	ldr	r1, [fp, -#36]
    d1f0:	ebffff16 	bl	ce50 <s_do_get_perms>
    d1f4:	e51b0024 	ldr	r0, [fp, -#36]
    d1f8:	eb00127e 	bl	11bf8 <talloc_free>
    d1fc:	ea00001c 	b	d274 <setup_structure+0x1d8>
    d200:	e3a03e1a 	mov	r3, #416	; 0x1a0
    d204:	e58d3000 	str	r3, [sp]
    d208:	e51b0014 	ldr	r0, [fp, -#20]
    d20c:	e59f1078 	ldr	r1, [pc, #120]	; d28c <setup_structure+0x1f0>
    d210:	e3a02000 	mov	r2, #0	; 0x0
    d214:	e3a03042 	mov	r3, #66	; 0x42
    d218:	eb002bf2 	bl	181e8 <tdb_open>
    d21c:	e1a02000 	mov	r2, r0
    d220:	e59f3050 	ldr	r3, [pc, #80]	; d278 <setup_structure+0x1dc>
    d224:	e5832000 	str	r2, [r3]
    d228:	e59f3048 	ldr	r3, [pc, #72]	; d278 <setup_structure+0x1dc>
    d22c:	e5933000 	ldr	r3, [r3]
    d230:	e3530000 	cmp	r3, #0	; 0x0
    d234:	1a000002 	bne	d244 <setup_structure+0x1a8>
    d238:	e59f0050 	ldr	r0, [pc, #80]	; d290 <setup_structure+0x1f4>
    d23c:	e51b1014 	ldr	r1, [fp, -#20]
    d240:	eb0018e4 	bl	135d8 <barf_perror>
    d244:	e59f0048 	ldr	r0, [pc, #72]	; d294 <setup_structure+0x1f8>
    d248:	ebfff089 	bl	9474 <_init+0x374>
    d24c:	e59f0044 	ldr	r0, [pc, #68]	; d298 <setup_structure+0x1fc>
    d250:	e59f1044 	ldr	r1, [pc, #68]	; d29c <setup_structure+0x200>
    d254:	ebfffec8 	bl	cd7c <manual_node>
    d258:	e59f0040 	ldr	r0, [pc, #64]	; d2a0 <setup_structure+0x204>
    d25c:	e59f1040 	ldr	r1, [pc, #64]	; d2a4 <setup_structure+0x208>
    d260:	ebfffec5 	bl	cd7c <manual_node>
    d264:	e59f003c 	ldr	r0, [pc, #60]	; d2a8 <setup_structure+0x20c>
    d268:	e3a01000 	mov	r1, #0	; 0x0
    d26c:	ebfffec2 	bl	cd7c <manual_node>
    d270:	eb00016a 	bl	d820 <check_store>
    d274:	e91ba810 	ldmdb	fp, {r4, fp, sp, pc}
    d278:	00024d24 	andeq	r4, r2, r4, lsr #26
    d27c:	0001ad80 	andeq	sl, r1, r0, lsl #27
    d280:	0001ad9c 	muleq	r1, ip, sp
    d284:	0002480d 	andeq	r4, r2, sp, lsl #16
    d288:	0001ada4 	andeq	sl, r1, r4, lsr #27
    d28c:	00001eef 	andeq	r1, r0, pc, ror #29
    d290:	0001adac 	andeq	sl, r1, ip, lsr #27
    d294:	0001adcc 	andeq	sl, r1, ip, asr #27
    d298:	0001a9f0 	streqd	sl, [r1], -r0
    d29c:	0001ade8 	andeq	sl, r1, r8, ror #27
    d2a0:	0001adf0 	streqd	sl, [r1], -r0
    d2a4:	0001adf8 	streqd	sl, [r1], -r8
    d2a8:	0001ae04 	andeq	sl, r1, r4, lsl #28

0000d2ac <hash_from_key_fn>:
    d2ac:	e1a0c00d 	mov	ip, sp
    d2b0:	e92dd800 	stmdb	sp!, {fp, ip, lr, pc}
    d2b4:	e24cb004 	sub	fp, ip, #4	; 0x4
    d2b8:	e24dd010 	sub	sp, sp, #16	; 0x10
    d2bc:	e50b0010 	str	r0, [fp, -#16]
    d2c0:	e51b3010 	ldr	r3, [fp, -#16]
    d2c4:	e50b3014 	str	r3, [fp, -#20]
    d2c8:	e59f3058 	ldr	r3, [pc, #88]	; d328 <hash_from_key_fn+0x7c>
    d2cc:	e50b3018 	str	r3, [fp, -#24]
    d2d0:	e24b1014 	sub	r1, fp, #20	; 0x14
    d2d4:	e5913000 	ldr	r3, [r1]
    d2d8:	e1a02003 	mov	r2, r3
    d2dc:	e5d22000 	ldrb	r2, [r2]
    d2e0:	e54b2019 	strb	r2, [fp, -#25]
    d2e4:	e2833001 	add	r3, r3, #1	; 0x1
    d2e8:	e5813000 	str	r3, [r1]
    d2ec:	e20230ff 	and	r3, r2, #255	; 0xff
    d2f0:	e3530000 	cmp	r3, #0	; 0x0
    d2f4:	1a000000 	bne	d2fc <hash_from_key_fn+0x50>
    d2f8:	ea000007 	b	d31c <hash_from_key_fn+0x70>
    d2fc:	e51b3018 	ldr	r3, [fp, -#24]
    d300:	e1a02283 	mov	r2, r3, lsl #5
    d304:	e51b3018 	ldr	r3, [fp, -#24]
    d308:	e0822003 	add	r2, r2, r3
    d30c:	e55b3019 	ldrb	r3, [fp, -#25]
    d310:	e0823003 	add	r3, r2, r3
    d314:	e50b3018 	str	r3, [fp, -#24]
    d318:	eaffffec 	b	d2d0 <hash_from_key_fn+0x24>
    d31c:	e51b3018 	ldr	r3, [fp, -#24]
    d320:	e1a00003 	mov	r0, r3
    d324:	e91ba800 	ldmdb	fp, {fp, sp, pc}
    d328:	00001505 	andeq	r1, r0, r5, lsl #10

0000d32c <keys_equal_fn>:
    d32c:	e1a0c00d 	mov	ip, sp
    d330:	e92dd800 	stmdb	sp!, {fp, ip, lr, pc}
    d334:	e24cb004 	sub	fp, ip, #4	; 0x4
    d338:	e24dd00c 	sub	sp, sp, #12	; 0xc
    d33c:	e50b0010 	str	r0, [fp, -#16]
    d340:	e50b1014 	str	r1, [fp, -#20]
    d344:	e51b0010 	ldr	r0, [fp, -#16]
    d348:	e51b1014 	ldr	r1, [fp, -#20]
    d34c:	ebffef90 	bl	9194 <_init+0x94>
    d350:	e1a03000 	mov	r3, r0
    d354:	e50b3018 	str	r3, [fp, -#24]
    d358:	e51b3018 	ldr	r3, [fp, -#24]
    d35c:	e3530000 	cmp	r3, #0	; 0x0
    d360:	13a03000 	movne	r3, #0	; 0x0
    d364:	03a03001 	moveq	r3, #1	; 0x1
    d368:	e50b3018 	str	r3, [fp, -#24]
    d36c:	e51b3018 	ldr	r3, [fp, -#24]
    d370:	e1a00003 	mov	r0, r3
    d374:	e91ba800 	ldmdb	fp, {fp, sp, pc}

0000d378 <child_name>:
    d378:	e1a0c00d 	mov	ip, sp
    d37c:	e92dd800 	stmdb	sp!, {fp, ip, lr, pc}
    d380:	e24cb004 	sub	fp, ip, #4	; 0x4
    d384:	e24dd00c 	sub	sp, sp, #12	; 0xc
    d388:	e50b0010 	str	r0, [fp, -#16]
    d38c:	e50b1014 	str	r1, [fp, -#20]
    d390:	e51b0010 	ldr	r0, [fp, -#16]
    d394:	e59f104c 	ldr	r1, [pc, #76]	; d3e8 <child_name+0x70>
    d398:	ebffef7d 	bl	9194 <_init+0x94>
    d39c:	e1a03000 	mov	r3, r0
    d3a0:	e3530000 	cmp	r3, #0	; 0x0
    d3a4:	0a000007 	beq	d3c8 <child_name+0x50>
    d3a8:	e3a00000 	mov	r0, #0	; 0x0
    d3ac:	e59f1038 	ldr	r1, [pc, #56]	; d3ec <child_name+0x74>
    d3b0:	e51b2010 	ldr	r2, [fp, -#16]
    d3b4:	e51b3014 	ldr	r3, [fp, -#20]
    d3b8:	eb0016d7 	bl	12f1c <talloc_asprintf>
    d3bc:	e1a03000 	mov	r3, r0
    d3c0:	e50b3018 	str	r3, [fp, -#24]
    d3c4:	ea000005 	b	d3e0 <child_name+0x68>
    d3c8:	e3a00000 	mov	r0, #0	; 0x0
    d3cc:	e59f101c 	ldr	r1, [pc, #28]	; d3f0 <child_name+0x78>
    d3d0:	e51b2014 	ldr	r2, [fp, -#20]
    d3d4:	eb0016d0 	bl	12f1c <talloc_asprintf>
    d3d8:	e1a03000 	mov	r3, r0
    d3dc:	e50b3018 	str	r3, [fp, -#24]
    d3e0:	e51b0018 	ldr	r0, [fp, -#24]
    d3e4:	e91ba800 	ldmdb	fp, {fp, sp, pc}
    d3e8:	0001a9f0 	streqd	sl, [r1], -r0
    d3ec:	0001ab3c 	andeq	sl, r1, ip, lsr fp
    d3f0:	0001ae14 	andeq	sl, r1, r4, lsl lr

0000d3f4 <remember_string>:
    d3f4:	e1a0c00d 	mov	ip, sp
    d3f8:	e92dd800 	stmdb	sp!, {fp, ip, lr, pc}
    d3fc:	e24cb004 	sub	fp, ip, #4	; 0x4
    d400:	e24dd00c 	sub	sp, sp, #12	; 0xc
    d404:	e50b0010 	str	r0, [fp, -#16]
    d408:	e50b1014 	str	r1, [fp, -#20]
    d40c:	e51b0014 	ldr	r0, [fp, -#20]
    d410:	ebffefef 	bl	93d4 <_init+0x2d4>
    d414:	e1a03000 	mov	r3, r0
    d418:	e2833001 	add	r3, r3, #1	; 0x1
    d41c:	e1a00003 	mov	r0, r3
    d420:	ebffefaf 	bl	92e4 <_init+0x1e4>
    d424:	e1a03000 	mov	r3, r0
    d428:	e50b3018 	str	r3, [fp, -#24]
    d42c:	e51b0018 	ldr	r0, [fp, -#24]
    d430:	e51b1014 	ldr	r1, [fp, -#20]
    d434:	ebfff066 	bl	95d4 <_init+0x4d4>
    d438:	e51b0010 	ldr	r0, [fp, -#16]
    d43c:	e51b1018 	ldr	r1, [fp, -#24]
    d440:	e3a02001 	mov	r2, #1	; 0x1
    d444:	eb0031c6 	bl	19b64 <hashtable_insert>
    d448:	e91ba800 	ldmdb	fp, {fp, sp, pc}

0000d44c <check_store_>:
    d44c:	e1a0c00d 	mov	ip, sp
    d450:	e92dd800 	stmdb	sp!, {fp, ip, lr, pc}
    d454:	e24cb004 	sub	fp, ip, #4	; 0x4
    d458:	e24dd024 	sub	sp, sp, #36	; 0x24
    d45c:	e50b0010 	str	r0, [fp, -#16]
    d460:	e50b1014 	str	r1, [fp, -#20]
    d464:	e3a00000 	mov	r0, #0	; 0x0
    d468:	e51b1010 	ldr	r1, [fp, -#16]
    d46c:	ebfff419 	bl	a4d8 <read_node>
    d470:	e1a03000 	mov	r3, r0
    d474:	e50b3018 	str	r3, [fp, -#24]
    d478:	e51b3018 	ldr	r3, [fp, -#24]
    d47c:	e3530000 	cmp	r3, #0	; 0x0
    d480:	0a000080 	beq	d688 <check_store_+0x23c>
    d484:	e3a03000 	mov	r3, #0	; 0x0
    d488:	e50b301c 	str	r3, [fp, -#28]
    d48c:	e3a00010 	mov	r0, #16	; 0x10
    d490:	e59f1230 	ldr	r1, [pc, #560]	; d6c8 <check_store_+0x27c>
    d494:	e59f2230 	ldr	r2, [pc, #560]	; d6cc <check_store_+0x280>
    d498:	eb003040 	bl	195a0 <create_hashtable>
    d49c:	e1a03000 	mov	r3, r0
    d4a0:	e50b3020 	str	r3, [fp, -#32]
    d4a4:	e51b0014 	ldr	r0, [fp, -#20]
    d4a8:	e51b1010 	ldr	r1, [fp, -#16]
    d4ac:	ebffffd0 	bl	d3f4 <remember_string>
    d4b0:	e51b3018 	ldr	r3, [fp, -#24]
    d4b4:	e51b201c 	ldr	r2, [fp, -#28]
    d4b8:	e593301c 	ldr	r3, [r3, #28]
    d4bc:	e1520003 	cmp	r2, r3
    d4c0:	3a000000 	bcc	d4c8 <check_store_+0x7c>
    d4c4:	ea000069 	b	d670 <check_store_+0x224>
    d4c8:	e51b3018 	ldr	r3, [fp, -#24]
    d4cc:	e5932020 	ldr	r2, [r3, #32]
    d4d0:	e51b301c 	ldr	r3, [fp, -#28]
    d4d4:	e0823003 	add	r3, r2, r3
    d4d8:	e1a00003 	mov	r0, r3
    d4dc:	ebffefbc 	bl	93d4 <_init+0x2d4>
    d4e0:	e1a03000 	mov	r3, r0
    d4e4:	e50b3024 	str	r3, [fp, -#36]
    d4e8:	e51b1018 	ldr	r1, [fp, -#24]
    d4ec:	e51b3018 	ldr	r3, [fp, -#24]
    d4f0:	e5932020 	ldr	r2, [r3, #32]
    d4f4:	e51b301c 	ldr	r3, [fp, -#28]
    d4f8:	e0823003 	add	r3, r2, r3
    d4fc:	e5910000 	ldr	r0, [r1]
    d500:	e1a01003 	mov	r1, r3
    d504:	ebffff9b 	bl	d378 <child_name>
    d508:	e1a03000 	mov	r3, r0
    d50c:	e50b3028 	str	r3, [fp, -#40]
    d510:	e3a00000 	mov	r0, #0	; 0x0
    d514:	e51b1028 	ldr	r1, [fp, -#40]
    d518:	ebfff3ee 	bl	a4d8 <read_node>
    d51c:	e1a03000 	mov	r3, r0
    d520:	e50b302c 	str	r3, [fp, -#44]
    d524:	e51b302c 	ldr	r3, [fp, -#44]
    d528:	e3530000 	cmp	r3, #0	; 0x0
    d52c:	0a000029 	beq	d5d8 <check_store_+0x18c>
    d530:	e51b0020 	ldr	r0, [fp, -#32]
    d534:	e51b1028 	ldr	r1, [fp, -#40]
    d538:	eb0031d0 	bl	19c80 <hashtable_search>
    d53c:	e1a03000 	mov	r3, r0
    d540:	e3530000 	cmp	r3, #0	; 0x0
    d544:	0a00001c 	beq	d5bc <check_store_+0x170>
    d548:	e3a00000 	mov	r0, #0	; 0x0
    d54c:	e59f117c 	ldr	r1, [pc, #380]	; d6d0 <check_store_+0x284>
    d550:	e51b2028 	ldr	r2, [fp, -#40]
    d554:	eb001670 	bl	12f1c <talloc_asprintf>
    d558:	e1a03000 	mov	r3, r0
    d55c:	e50b3030 	str	r3, [fp, -#48]
    d560:	e59f016c 	ldr	r0, [pc, #364]	; d6d4 <check_store_+0x288>
    d564:	e51b1030 	ldr	r1, [fp, -#48]
    d568:	ebfff0fd 	bl	9964 <trace>
    d56c:	e3a00003 	mov	r0, #3	; 0x3
    d570:	e59f1160 	ldr	r1, [pc, #352]	; d6d8 <check_store_+0x28c>
    d574:	e51b2030 	ldr	r2, [fp, -#48]
    d578:	ebffef6d 	bl	9334 <_init+0x234>
    d57c:	e51b0030 	ldr	r0, [fp, -#48]
    d580:	eb00119c 	bl	11bf8 <talloc_free>
    d584:	e59f3150 	ldr	r3, [pc, #336]	; d6dc <check_store_+0x290>
    d588:	e5d33000 	ldrb	r3, [r3]
    d58c:	e3530000 	cmp	r3, #0	; 0x0
    d590:	0a00002c 	beq	d648 <check_store_+0x1fc>
    d594:	e3a00000 	mov	r0, #0	; 0x0
    d598:	e51b1018 	ldr	r1, [fp, -#24]
    d59c:	e51b201c 	ldr	r2, [fp, -#28]
    d5a0:	ebfffa3f 	bl	bea4 <remove_child_entry>
    d5a4:	e51b201c 	ldr	r2, [fp, -#28]
    d5a8:	e51b3024 	ldr	r3, [fp, -#36]
    d5ac:	e0633002 	rsb	r3, r3, r2
    d5b0:	e2433001 	sub	r3, r3, #1	; 0x1
    d5b4:	e50b301c 	str	r3, [fp, -#28]
    d5b8:	ea000022 	b	d648 <check_store_+0x1fc>
    d5bc:	e51b0020 	ldr	r0, [fp, -#32]
    d5c0:	e51b1028 	ldr	r1, [fp, -#40]
    d5c4:	ebffff8a 	bl	d3f4 <remember_string>
    d5c8:	e51b0028 	ldr	r0, [fp, -#40]
    d5cc:	e51b1014 	ldr	r1, [fp, -#20]
    d5d0:	ebffff9d 	bl	d44c <check_store_>
    d5d4:	ea00001b 	b	d648 <check_store_+0x1fc>
    d5d8:	e3a00000 	mov	r0, #0	; 0x0
    d5dc:	e59f10fc 	ldr	r1, [pc, #252]	; d6e0 <check_store_+0x294>
    d5e0:	e51b2028 	ldr	r2, [fp, -#40]
    d5e4:	eb00164c 	bl	12f1c <talloc_asprintf>
    d5e8:	e1a03000 	mov	r3, r0
    d5ec:	e50b3030 	str	r3, [fp, -#48]
    d5f0:	e59f00dc 	ldr	r0, [pc, #220]	; d6d4 <check_store_+0x288>
    d5f4:	e51b1030 	ldr	r1, [fp, -#48]
    d5f8:	ebfff0d9 	bl	9964 <trace>
    d5fc:	e3a00003 	mov	r0, #3	; 0x3
    d600:	e59f10d0 	ldr	r1, [pc, #208]	; d6d8 <check_store_+0x28c>
    d604:	e51b2030 	ldr	r2, [fp, -#48]
    d608:	ebffef49 	bl	9334 <_init+0x234>
    d60c:	e51b0030 	ldr	r0, [fp, -#48]
    d610:	eb001178 	bl	11bf8 <talloc_free>
    d614:	e59f30c0 	ldr	r3, [pc, #192]	; d6dc <check_store_+0x290>
    d618:	e5d33000 	ldrb	r3, [r3]
    d61c:	e3530000 	cmp	r3, #0	; 0x0
    d620:	0a000008 	beq	d648 <check_store_+0x1fc>
    d624:	e3a00000 	mov	r0, #0	; 0x0
    d628:	e51b1018 	ldr	r1, [fp, -#24]
    d62c:	e51b201c 	ldr	r2, [fp, -#28]
    d630:	ebfffa1b 	bl	bea4 <remove_child_entry>
    d634:	e51b201c 	ldr	r2, [fp, -#28]
    d638:	e51b3024 	ldr	r3, [fp, -#36]
    d63c:	e0633002 	rsb	r3, r3, r2
    d640:	e2433001 	sub	r3, r3, #1	; 0x1
    d644:	e50b301c 	str	r3, [fp, -#28]
    d648:	e51b002c 	ldr	r0, [fp, -#44]
    d64c:	eb001169 	bl	11bf8 <talloc_free>
    d650:	e51b0028 	ldr	r0, [fp, -#40]
    d654:	eb001167 	bl	11bf8 <talloc_free>
    d658:	e51b201c 	ldr	r2, [fp, -#28]
    d65c:	e51b3024 	ldr	r3, [fp, -#36]
    d660:	e0823003 	add	r3, r2, r3
    d664:	e2833001 	add	r3, r3, #1	; 0x1
    d668:	e50b301c 	str	r3, [fp, -#28]
    d66c:	eaffff8f 	b	d4b0 <check_store_+0x64>
    d670:	e51b0020 	ldr	r0, [fp, -#32]
    d674:	e3a01000 	mov	r1, #0	; 0x0
    d678:	eb003207 	bl	19e9c <hashtable_destroy>
    d67c:	e51b0018 	ldr	r0, [fp, -#24]
    d680:	eb00115c 	bl	11bf8 <talloc_free>
    d684:	ea00000e 	b	d6c4 <check_store_+0x278>
    d688:	e3a00000 	mov	r0, #0	; 0x0
    d68c:	e59f1050 	ldr	r1, [pc, #80]	; d6e4 <check_store_+0x298>
    d690:	e51b2010 	ldr	r2, [fp, -#16]
    d694:	eb001620 	bl	12f1c <talloc_asprintf>
    d698:	e1a03000 	mov	r3, r0
    d69c:	e50b3030 	str	r3, [fp, -#48]
    d6a0:	e59f002c 	ldr	r0, [pc, #44]	; d6d4 <check_store_+0x288>
    d6a4:	e51b1030 	ldr	r1, [fp, -#48]
    d6a8:	ebfff0ad 	bl	9964 <trace>
    d6ac:	e3a00003 	mov	r0, #3	; 0x3
    d6b0:	e59f1020 	ldr	r1, [pc, #32]	; d6d8 <check_store_+0x28c>
    d6b4:	e51b2030 	ldr	r2, [fp, -#48]
    d6b8:	ebffef1d 	bl	9334 <_init+0x234>
    d6bc:	e51b0030 	ldr	r0, [fp, -#48]
    d6c0:	eb00114c 	bl	11bf8 <talloc_free>
    d6c4:	e91ba800 	ldmdb	fp, {fp, sp, pc}
    d6c8:	0000d2ac 	andeq	sp, r0, ip, lsr #5
    d6cc:	0000d32c 	andeq	sp, r0, ip, lsr #6
    d6d0:	0001ae18 	andeq	sl, r1, r8, lsl lr
    d6d4:	0001aa0c 	andeq	sl, r1, ip, lsl #20
    d6d8:	0001aa10 	andeq	sl, r1, r0, lsl sl
    d6dc:	0002480c 	andeq	r4, r2, ip, lsl #16
    d6e0:	0001ae3c 	andeq	sl, r1, ip, lsr lr
    d6e4:	0001ae60 	andeq	sl, r1, r0, ror #28

0000d6e8 <clean_store_>:
    d6e8:	e1a0c00d 	mov	ip, sp
    d6ec:	e24dd004 	sub	sp, sp, #4	; 0x4
    d6f0:	e92dd800 	stmdb	sp!, {fp, ip, lr, pc}
    d6f4:	e24cb008 	sub	fp, ip, #8	; 0x8
    d6f8:	e24dd018 	sub	sp, sp, #24	; 0x18
    d6fc:	e50b0010 	str	r0, [fp, -#16]
    d700:	e3e0000b 	mvn	r0, #11	; 0xb
    d704:	e24bc00c 	sub	ip, fp, #12	; 0xc
    d708:	e08c0000 	add	r0, ip, r0
    d70c:	e8800006 	stmia	r0, {r1, r2}
    d710:	e58b3004 	str	r3, [fp, #4]
    d714:	e59b300c 	ldr	r3, [fp, #12]
    d718:	e50b301c 	str	r3, [fp, -#28]
    d71c:	e3e0300b 	mvn	r3, #11	; 0xb
    d720:	e24b100c 	sub	r1, fp, #12	; 0xc
    d724:	e0812003 	add	r2, r1, r3
    d728:	e3e0300b 	mvn	r3, #11	; 0xb
    d72c:	e24bc00c 	sub	ip, fp, #12	; 0xc
    d730:	e08c3003 	add	r3, ip, r3
    d734:	e3a00000 	mov	r0, #0	; 0x0
    d738:	e5921000 	ldr	r1, [r2]
    d73c:	e5932004 	ldr	r2, [r3, #4]
    d740:	eb001591 	bl	12d8c <talloc_strndup>
    d744:	e1a03000 	mov	r3, r0
    d748:	e50b3020 	str	r3, [fp, -#32]
    d74c:	e51b001c 	ldr	r0, [fp, -#28]
    d750:	e51b1020 	ldr	r1, [fp, -#32]
    d754:	eb003149 	bl	19c80 <hashtable_search>
    d758:	e1a03000 	mov	r3, r0
    d75c:	e3530000 	cmp	r3, #0	; 0x0
    d760:	1a000018 	bne	d7c8 <clean_store_+0xe0>
    d764:	e3a00000 	mov	r0, #0	; 0x0
    d768:	e59f106c 	ldr	r1, [pc, #108]	; d7dc <clean_store_+0xf4>
    d76c:	e51b2020 	ldr	r2, [fp, -#32]
    d770:	eb0015e9 	bl	12f1c <talloc_asprintf>
    d774:	e1a03000 	mov	r3, r0
    d778:	e50b3024 	str	r3, [fp, -#36]
    d77c:	e59f005c 	ldr	r0, [pc, #92]	; d7e0 <clean_store_+0xf8>
    d780:	e51b1024 	ldr	r1, [fp, -#36]
    d784:	ebfff076 	bl	9964 <trace>
    d788:	e3a00003 	mov	r0, #3	; 0x3
    d78c:	e59f1050 	ldr	r1, [pc, #80]	; d7e4 <clean_store_+0xfc>
    d790:	e51b2024 	ldr	r2, [fp, -#36]
    d794:	ebffeee6 	bl	9334 <_init+0x234>
    d798:	e51b0024 	ldr	r0, [fp, -#36]
    d79c:	eb001115 	bl	11bf8 <talloc_free>
    d7a0:	e59f3040 	ldr	r3, [pc, #64]	; d7e8 <clean_store_+0x100>
    d7a4:	e5d33000 	ldrb	r3, [r3]
    d7a8:	e3530000 	cmp	r3, #0	; 0x0
    d7ac:	0a000005 	beq	d7c8 <clean_store_+0xe0>
    d7b0:	e3e0300b 	mvn	r3, #11	; 0xb
    d7b4:	e24b100c 	sub	r1, fp, #12	; 0xc
    d7b8:	e0813003 	add	r3, r1, r3
    d7bc:	e51b0010 	ldr	r0, [fp, -#16]
    d7c0:	e8930006 	ldmia	r3, {r1, r2}
    d7c4:	eb0027ef 	bl	17788 <tdb_delete>
    d7c8:	e51b0020 	ldr	r0, [fp, -#32]
    d7cc:	eb001109 	bl	11bf8 <talloc_free>
    d7d0:	e3a03000 	mov	r3, #0	; 0x0
    d7d4:	e1a00003 	mov	r0, r3
    d7d8:	e91ba800 	ldmdb	fp, {fp, sp, pc}
    d7dc:	0001ae90 	muleq	r1, r0, lr
    d7e0:	0001aa0c 	andeq	sl, r1, ip, lsl #20
    d7e4:	0001aa10 	andeq	sl, r1, r0, lsl sl
    d7e8:	0002480c 	andeq	r4, r2, ip, lsl #16

0000d7ec <clean_store>:
    d7ec:	e1a0c00d 	mov	ip, sp
    d7f0:	e92dd800 	stmdb	sp!, {fp, ip, lr, pc}
    d7f4:	e24cb004 	sub	fp, ip, #4	; 0x4
    d7f8:	e24dd004 	sub	sp, sp, #4	; 0x4
    d7fc:	e50b0010 	str	r0, [fp, -#16]
    d800:	e59f3010 	ldr	r3, [pc, #16]	; d818 <clean_store+0x2c>
    d804:	e5930000 	ldr	r0, [r3]
    d808:	e59f100c 	ldr	r1, [pc, #12]	; d81c <clean_store+0x30>
    d80c:	e51b2010 	ldr	r2, [fp, -#16]
    d810:	eb002585 	bl	16e2c <tdb_traverse>
    d814:	e91ba800 	ldmdb	fp, {fp, sp, pc}
    d818:	00024d24 	andeq	r4, r2, r4, lsr #26
    d81c:	0000d6e8 	andeq	sp, r0, r8, ror #13

0000d820 <check_store>:
    d820:	e1a0c00d 	mov	ip, sp
    d824:	e92dd800 	stmdb	sp!, {fp, ip, lr, pc}
    d828:	e24cb004 	sub	fp, ip, #4	; 0x4
    d82c:	e24dd00c 	sub	sp, sp, #12	; 0xc
    d830:	e3a00000 	mov	r0, #0	; 0x0
    d834:	e59f10bc 	ldr	r1, [pc, #188]	; d8f8 <check_store+0xd8>
    d838:	eb0014ff 	bl	12c3c <talloc_strdup>
    d83c:	e1a03000 	mov	r3, r0
    d840:	e50b3010 	str	r3, [fp, -#16]
    d844:	e3a00010 	mov	r0, #16	; 0x10
    d848:	e59f10ac 	ldr	r1, [pc, #172]	; d8fc <check_store+0xdc>
    d84c:	e59f20ac 	ldr	r2, [pc, #172]	; d900 <check_store+0xe0>
    d850:	eb002f52 	bl	195a0 <create_hashtable>
    d854:	e1a03000 	mov	r3, r0
    d858:	e50b3014 	str	r3, [fp, -#20]
    d85c:	e3a00000 	mov	r0, #0	; 0x0
    d860:	e59f109c 	ldr	r1, [pc, #156]	; d904 <check_store+0xe4>
    d864:	eb0015ac 	bl	12f1c <talloc_asprintf>
    d868:	e1a03000 	mov	r3, r0
    d86c:	e50b3018 	str	r3, [fp, -#24]
    d870:	e59f0090 	ldr	r0, [pc, #144]	; d908 <check_store+0xe8>
    d874:	e51b1018 	ldr	r1, [fp, -#24]
    d878:	ebfff039 	bl	9964 <trace>
    d87c:	e3a00003 	mov	r0, #3	; 0x3
    d880:	e59f1084 	ldr	r1, [pc, #132]	; d90c <check_store+0xec>
    d884:	e51b2018 	ldr	r2, [fp, -#24]
    d888:	ebffeea9 	bl	9334 <_init+0x234>
    d88c:	e51b0018 	ldr	r0, [fp, -#24]
    d890:	eb0010d8 	bl	11bf8 <talloc_free>
    d894:	e51b0010 	ldr	r0, [fp, -#16]
    d898:	e51b1014 	ldr	r1, [fp, -#20]
    d89c:	ebfffeea 	bl	d44c <check_store_>
    d8a0:	e51b0014 	ldr	r0, [fp, -#20]
    d8a4:	ebffffd0 	bl	d7ec <clean_store>
    d8a8:	e3a00000 	mov	r0, #0	; 0x0
    d8ac:	e59f105c 	ldr	r1, [pc, #92]	; d910 <check_store+0xf0>
    d8b0:	eb001599 	bl	12f1c <talloc_asprintf>
    d8b4:	e1a03000 	mov	r3, r0
    d8b8:	e50b3018 	str	r3, [fp, -#24]
    d8bc:	e59f0044 	ldr	r0, [pc, #68]	; d908 <check_store+0xe8>
    d8c0:	e51b1018 	ldr	r1, [fp, -#24]
    d8c4:	ebfff026 	bl	9964 <trace>
    d8c8:	e3a00003 	mov	r0, #3	; 0x3
    d8cc:	e59f1038 	ldr	r1, [pc, #56]	; d90c <check_store+0xec>
    d8d0:	e51b2018 	ldr	r2, [fp, -#24]
    d8d4:	ebffee96 	bl	9334 <_init+0x234>
    d8d8:	e51b0018 	ldr	r0, [fp, -#24]
    d8dc:	eb0010c5 	bl	11bf8 <talloc_free>
    d8e0:	e51b0014 	ldr	r0, [fp, -#20]
    d8e4:	e3a01000 	mov	r1, #0	; 0x0
    d8e8:	eb00316b 	bl	19e9c <hashtable_destroy>
    d8ec:	e51b0010 	ldr	r0, [fp, -#16]
    d8f0:	eb0010c0 	bl	11bf8 <talloc_free>
    d8f4:	e91ba800 	ldmdb	fp, {fp, sp, pc}
    d8f8:	0001a9f0 	streqd	sl, [r1], -r0
    d8fc:	0000d2ac 	andeq	sp, r0, ip, lsr #5
    d900:	0000d32c 	andeq	sp, r0, ip, lsr #6
    d904:	0001aeb0 	streqh	sl, [r1], -r0
    d908:	0001aa0c 	andeq	sl, r1, ip, lsl #20
    d90c:	0001aa10 	andeq	sl, r1, r0, lsl sl
    d910:	0001aec4 	andeq	sl, r1, r4, asr #29

0000d914 <corrupt>:
    d914:	e1a0c00d 	mov	ip, sp
    d918:	e92d000e 	stmdb	sp!, {r1, r2, r3}
    d91c:	e92dd800 	stmdb	sp!, {fp, ip, lr, pc}
    d920:	e24cb010 	sub	fp, ip, #16	; 0x10
    d924:	e24dd020 	sub	sp, sp, #32	; 0x20
    d928:	e50b0010 	str	r0, [fp, -#16]
    d92c:	ebffee58 	bl	9294 <_init+0x194>
    d930:	e1a03000 	mov	r3, r0
    d934:	e5933000 	ldr	r3, [r3]
    d938:	e50b301c 	str	r3, [fp, -#28]
    d93c:	e28b3008 	add	r3, fp, #8	; 0x8
    d940:	e50b3014 	str	r3, [fp, -#20]
    d944:	e3a00000 	mov	r0, #0	; 0x0
    d948:	e59b1004 	ldr	r1, [fp, #4]
    d94c:	e51b2014 	ldr	r2, [fp, -#20]
    d950:	eb001541 	bl	12e5c <talloc_vasprintf>
    d954:	e1a03000 	mov	r3, r0
    d958:	e50b3018 	str	r3, [fp, -#24]
    d95c:	e51b001c 	ldr	r0, [fp, -#28]
    d960:	ebffee3f 	bl	9264 <_init+0x164>
    d964:	e50b0024 	str	r0, [fp, -#36]
    d968:	e51b3010 	ldr	r3, [fp, -#16]
    d96c:	e3530000 	cmp	r3, #0	; 0x0
    d970:	0a000003 	beq	d984 <corrupt+0x70>
    d974:	e51b3010 	ldr	r3, [fp, -#16]
    d978:	e593300c 	ldr	r3, [r3, #12]
    d97c:	e50b3028 	str	r3, [fp, -#40]
    d980:	ea000001 	b	d98c <corrupt+0x78>
    d984:	e3e03000 	mvn	r3, #0	; 0x0
    d988:	e50b3028 	str	r3, [fp, -#40]
    d98c:	e51b3018 	ldr	r3, [fp, -#24]
    d990:	e58d3000 	str	r3, [sp]
    d994:	e3a00000 	mov	r0, #0	; 0x0
    d998:	e59f103c 	ldr	r1, [pc, #60]	; d9dc <corrupt+0xc8>
    d99c:	e51b2028 	ldr	r2, [fp, -#40]
    d9a0:	e51b3024 	ldr	r3, [fp, -#36]
    d9a4:	eb00155c 	bl	12f1c <talloc_asprintf>
    d9a8:	e1a03000 	mov	r3, r0
    d9ac:	e50b3020 	str	r3, [fp, -#32]
    d9b0:	e59f0028 	ldr	r0, [pc, #40]	; d9e0 <corrupt+0xcc>
    d9b4:	e51b1020 	ldr	r1, [fp, -#32]
    d9b8:	ebffefe9 	bl	9964 <trace>
    d9bc:	e3a00003 	mov	r0, #3	; 0x3
    d9c0:	e59f101c 	ldr	r1, [pc, #28]	; d9e4 <corrupt+0xd0>
    d9c4:	e51b2020 	ldr	r2, [fp, -#32]
    d9c8:	ebffee59 	bl	9334 <_init+0x234>
    d9cc:	e51b0020 	ldr	r0, [fp, -#32]
    d9d0:	eb001088 	bl	11bf8 <talloc_free>
    d9d4:	ebffff91 	bl	d820 <check_store>
    d9d8:	e91ba800 	ldmdb	fp, {fp, sp, pc}
    d9dc:	0001aee0 	andeq	sl, r1, r0, ror #29
    d9e0:	0001aa0c 	andeq	sl, r1, ip, lsl #20
    d9e4:	0001aa10 	andeq	sl, r1, r0, lsl sl

0000d9e8 <write_pidfile>:
    d9e8:	e1a0c00d 	mov	ip, sp
    d9ec:	e92dd800 	stmdb	sp!, {fp, ip, lr, pc}
    d9f0:	e24cb004 	sub	fp, ip, #4	; 0x4
    d9f4:	e24dd070 	sub	sp, sp, #112	; 0x70
    d9f8:	e50b0010 	str	r0, [fp, -#16]
    d9fc:	e51b0010 	ldr	r0, [fp, -#16]
    da00:	e3a01042 	mov	r1, #66	; 0x42
    da04:	e3a02d06 	mov	r2, #384	; 0x180
    da08:	ebffeeb9 	bl	94f4 <_init+0x3f4>
    da0c:	e1a03000 	mov	r3, r0
    da10:	e50b307c 	str	r3, [fp, -#124]
    da14:	e51b307c 	ldr	r3, [fp, -#124]
    da18:	e3730001 	cmn	r3, #1	; 0x1
    da1c:	1a000002 	bne	da2c <write_pidfile+0x44>
    da20:	e59f0060 	ldr	r0, [pc, #96]	; da88 <write_pidfile+0xa0>
    da24:	e51b1010 	ldr	r1, [fp, -#16]
    da28:	eb0016ea 	bl	135d8 <barf_perror>
    da2c:	e51b007c 	ldr	r0, [fp, -#124]
    da30:	e3a01002 	mov	r1, #2	; 0x2
    da34:	e3a02000 	mov	r2, #0	; 0x0
    da38:	ebffeebd 	bl	9534 <_init+0x434>
    da3c:	e1a03000 	mov	r3, r0
    da40:	e3730001 	cmn	r3, #1	; 0x1
    da44:	1a000001 	bne	da50 <write_pidfile+0x68>
    da48:	e3a00000 	mov	r0, #0	; 0x0
    da4c:	ebffeeb0 	bl	9514 <_init+0x414>
    da50:	ebffedc3 	bl	9164 <_init+0x64>
    da54:	e1a02000 	mov	r2, r0
    da58:	e24b3074 	sub	r3, fp, #116	; 0x74
    da5c:	e1a00003 	mov	r0, r3
    da60:	e59f1024 	ldr	r1, [pc, #36]	; da8c <write_pidfile+0xa4>
    da64:	ebffeece 	bl	95a4 <_init+0x4a4>
    da68:	e1a03000 	mov	r3, r0
    da6c:	e50b3078 	str	r3, [fp, -#120]
    da70:	e24b3074 	sub	r3, fp, #116	; 0x74
    da74:	e51b007c 	ldr	r0, [fp, -#124]
    da78:	e1a01003 	mov	r1, r3
    da7c:	e51b2078 	ldr	r2, [fp, -#120]
    da80:	ebffedbb 	bl	9174 <_init+0x74>
    da84:	e91ba800 	ldmdb	fp, {fp, sp, pc}
    da88:	0001af14 	andeq	sl, r1, r4, lsl pc
    da8c:	0001af28 	andeq	sl, r1, r8, lsr #30

0000da90 <daemonize>:
    da90:	e1a0c00d 	mov	ip, sp
    da94:	e92dd800 	stmdb	sp!, {fp, ip, lr, pc}
    da98:	e24cb004 	sub	fp, ip, #4	; 0x4
    da9c:	e24dd004 	sub	sp, sp, #4	; 0x4
    daa0:	ebffedcb 	bl	91d4 <_init+0xd4>
    daa4:	e1a03000 	mov	r3, r0
    daa8:	e50b3010 	str	r3, [fp, -#16]
    daac:	e51b3010 	ldr	r3, [fp, -#16]
    dab0:	e3530000 	cmp	r3, #0	; 0x0
    dab4:	aa000001 	bge	dac0 <daemonize+0x30>
    dab8:	e59f0060 	ldr	r0, [pc, #96]	; db20 <daemonize+0x90>
    dabc:	eb0016c5 	bl	135d8 <barf_perror>
    dac0:	e51b3010 	ldr	r3, [fp, -#16]
    dac4:	e3530000 	cmp	r3, #0	; 0x0
    dac8:	0a000001 	beq	dad4 <daemonize+0x44>
    dacc:	e3a00000 	mov	r0, #0	; 0x0
    dad0:	ebffee8f 	bl	9514 <_init+0x414>
    dad4:	ebffee06 	bl	92f4 <_init+0x1f4>
    dad8:	ebffedbd 	bl	91d4 <_init+0xd4>
    dadc:	e1a03000 	mov	r3, r0
    dae0:	e50b3010 	str	r3, [fp, -#16]
    dae4:	e51b3010 	ldr	r3, [fp, -#16]
    dae8:	e3530000 	cmp	r3, #0	; 0x0
    daec:	aa000001 	bge	daf8 <daemonize+0x68>
    daf0:	e59f0028 	ldr	r0, [pc, #40]	; db20 <daemonize+0x90>
    daf4:	eb0016b7 	bl	135d8 <barf_perror>
    daf8:	e51b3010 	ldr	r3, [fp, -#16]
    dafc:	e3530000 	cmp	r3, #0	; 0x0
    db00:	0a000001 	beq	db0c <daemonize+0x7c>
    db04:	e3a00000 	mov	r0, #0	; 0x0
    db08:	ebffee81 	bl	9514 <_init+0x414>
    db0c:	e59f0010 	ldr	r0, [pc, #16]	; db24 <daemonize+0x94>
    db10:	ebffee23 	bl	93a4 <_init+0x2a4>
    db14:	e3a00000 	mov	r0, #0	; 0x0
    db18:	ebffedb5 	bl	91f4 <_init+0xf4>
    db1c:	e91ba800 	ldmdb	fp, {fp, sp, pc}
    db20:	0001af2c 	andeq	sl, r1, ip, lsr #30
    db24:	0001a9f0 	streqd	sl, [r1], -r0

0000db28 <usage>:
    db28:	e1a0c00d 	mov	ip, sp
    db2c:	e92dd800 	stmdb	sp!, {fp, ip, lr, pc}
    db30:	e24cb004 	sub	fp, ip, #4	; 0x4
    db34:	e59f300c 	ldr	r3, [pc, #12]	; db48 <usage+0x20>
    db38:	e5930000 	ldr	r0, [r3]
    db3c:	e59f1008 	ldr	r1, [pc, #8]	; db4c <usage+0x24>
    db40:	ebffed9f 	bl	91c4 <_init+0xc4>
    db44:	e91ba800 	ldmdb	fp, {fp, sp, pc}
    db48:	00024d04 	andeq	r4, r2, r4, lsl #26
    db4c:	0001af44 	andeq	sl, r1, r4, asr #30

0000db50 <main>:
    db50:	e1a0c00d 	mov	ip, sp
    db54:	e92dd800 	stmdb	sp!, {fp, ip, lr, pc}
    db58:	e24cb004 	sub	fp, ip, #4	; 0x4
    db5c:	e24ddf69 	sub	sp, sp, #420	; 0x1a4
    db60:	e50b0010 	str	r0, [fp, -#16]
    db64:	e50b1014 	str	r1, [fp, -#20]
    db68:	e3e02f62 	mvn	r2, #392	; 0x188
    db6c:	e3a03001 	mov	r3, #1	; 0x1
    db70:	e24b100c 	sub	r1, fp, #12	; 0xc
    db74:	e7c13002 	strb	r3, [r1, r2]
    db78:	e59f28a0 	ldr	r2, [pc, #2208]	; e420 <main+0x8d0>
    db7c:	e3a03000 	mov	r3, #0	; 0x0
    db80:	e24b100c 	sub	r1, fp, #12	; 0xc
    db84:	e7c13002 	strb	r3, [r1, r2]
    db88:	e59f2894 	ldr	r2, [pc, #2196]	; e424 <main+0x8d4>
    db8c:	e3a03000 	mov	r3, #0	; 0x0
    db90:	e24b100c 	sub	r1, fp, #12	; 0xc
    db94:	e7c13002 	strb	r3, [r1, r2]
    db98:	e3a03000 	mov	r3, #0	; 0x0
    db9c:	e50b319c 	str	r3, [fp, -#412]
    dba0:	e3a03000 	mov	r3, #0	; 0x0
    dba4:	e58d3000 	str	r3, [sp]
    dba8:	e51b0010 	ldr	r0, [fp, -#16]
    dbac:	e51b1014 	ldr	r1, [fp, -#20]
    dbb0:	e59f2870 	ldr	r2, [pc, #2160]	; e428 <main+0x8d8>
    dbb4:	e59f3870 	ldr	r3, [pc, #2160]	; e42c <main+0x8dc>
    dbb8:	ebffee45 	bl	94d4 <_init+0x3d4>
    dbbc:	e1a03000 	mov	r3, r0
    dbc0:	e50b3018 	str	r3, [fp, -#24]
    dbc4:	e51b3018 	ldr	r3, [fp, -#24]
    dbc8:	e3730001 	cmn	r3, #1	; 0x1
    dbcc:	1a000000 	bne	dbd4 <main+0x84>
    dbd0:	ea00003f 	b	dcd4 <main+0x184>
    dbd4:	e51b3018 	ldr	r3, [fp, -#24]
    dbd8:	e2433044 	sub	r3, r3, #68	; 0x44
    dbdc:	e3530012 	cmp	r3, #18	; 0x12
    dbe0:	979ff103 	ldrls	pc, [pc, r3, lsl #2]
    dbe4:	eaffffed 	b	dba0 <main+0x50>
    dbe8:	0000dc34 	andeq	sp, r0, r4, lsr ip
    dbec:	0000dba0 	andeq	sp, r0, r0, lsr #23
    dbf0:	0000dc48 	andeq	sp, r0, r8, asr #24
    dbf4:	0000dba0 	andeq	sp, r0, r0, lsr #23
    dbf8:	0000dc58 	andeq	sp, r0, r8, asr ip
    dbfc:	0000dba0 	andeq	sp, r0, r0, lsr #23
    dc00:	0000dba0 	andeq	sp, r0, r0, lsr #23
    dc04:	0000dba0 	andeq	sp, r0, r0, lsr #23
    dc08:	0000dca0 	andeq	sp, r0, r0, lsr #25
    dc0c:	0000dba0 	andeq	sp, r0, r0, lsr #23
    dc10:	0000dc68 	andeq	sp, r0, r8, ror #24
    dc14:	0000dba0 	andeq	sp, r0, r0, lsr #23
    dc18:	0000dc7c 	andeq	sp, r0, ip, ror ip
    dc1c:	0000dba0 	andeq	sp, r0, r0, lsr #23
    dc20:	0000dc90 	muleq	r0, r0, ip
    dc24:	0000dba0 	andeq	sp, r0, r0, lsr #23
    dc28:	0000dcb0 	streqh	sp, [r0], -r0
    dc2c:	0000dba0 	andeq	sp, r0, r0, lsr #23
    dc30:	0000dcc4 	andeq	sp, r0, r4, asr #25
    dc34:	e59f37e8 	ldr	r3, [pc, #2024]	; e424 <main+0x8d4>
    dc38:	e3a02001 	mov	r2, #1	; 0x1
    dc3c:	e24b100c 	sub	r1, fp, #12	; 0xc
    dc40:	e7c12003 	strb	r2, [r1, r3]
    dc44:	eaffffd5 	b	dba0 <main+0x50>
    dc48:	e59f37e0 	ldr	r3, [pc, #2016]	; e430 <main+0x8e0>
    dc4c:	e5933000 	ldr	r3, [r3]
    dc50:	e50b319c 	str	r3, [fp, -#412]
    dc54:	eaffffd1 	b	dba0 <main+0x50>
    dc58:	ebffffb2 	bl	db28 <usage>
    dc5c:	e3a02000 	mov	r2, #0	; 0x0
    dc60:	e50b21ac 	str	r2, [fp, -#428]
    dc64:	ea0001eb 	b	e418 <main+0x8c8>
    dc68:	e3e03f62 	mvn	r3, #392	; 0x188
    dc6c:	e3a02000 	mov	r2, #0	; 0x0
    dc70:	e24b100c 	sub	r1, fp, #12	; 0xc
    dc74:	e7c12003 	strb	r2, [r1, r3]
    dc78:	eaffffc8 	b	dba0 <main+0x50>
    dc7c:	e59f379c 	ldr	r3, [pc, #1948]	; e420 <main+0x8d0>
    dc80:	e3a02001 	mov	r2, #1	; 0x1
    dc84:	e24b100c 	sub	r1, fp, #12	; 0xc
    dc88:	e7c12003 	strb	r2, [r1, r3]
    dc8c:	eaffffc3 	b	dba0 <main+0x50>
    dc90:	e59f379c 	ldr	r3, [pc, #1948]	; e434 <main+0x8e4>
    dc94:	e3a02000 	mov	r2, #0	; 0x0
    dc98:	e5c32000 	strb	r2, [r3]
    dc9c:	eaffffbf 	b	dba0 <main+0x50>
    dca0:	e59f3790 	ldr	r3, [pc, #1936]	; e438 <main+0x8e8>
    dca4:	e3a02000 	mov	r2, #0	; 0x0
    dca8:	e5c32000 	strb	r2, [r3]
    dcac:	eaffffbb 	b	dba0 <main+0x50>
    dcb0:	e59f3784 	ldr	r3, [pc, #1924]	; e43c <main+0x8ec>
    dcb4:	e59f2774 	ldr	r2, [pc, #1908]	; e430 <main+0x8e0>
    dcb8:	e5922000 	ldr	r2, [r2]
    dcbc:	e5832000 	str	r2, [r3]
    dcc0:	eaffffb6 	b	dba0 <main+0x50>
    dcc4:	e59f3774 	ldr	r3, [pc, #1908]	; e440 <main+0x8f0>
    dcc8:	e3a02001 	mov	r2, #1	; 0x1
    dccc:	e5c32000 	strb	r2, [r3]
    dcd0:	eaffffb2 	b	dba0 <main+0x50>
    dcd4:	e59f3768 	ldr	r3, [pc, #1896]	; e444 <main+0x8f4>
    dcd8:	e5932000 	ldr	r2, [r3]
    dcdc:	e51b3010 	ldr	r3, [fp, -#16]
    dce0:	e1520003 	cmp	r2, r3
    dce4:	0a000003 	beq	dcf8 <main+0x1a8>
    dce8:	e51b3014 	ldr	r3, [fp, -#20]
    dcec:	e59f0754 	ldr	r0, [pc, #1876]	; e448 <main+0x8f8>
    dcf0:	e5931000 	ldr	r1, [r3]
    dcf4:	eb001620 	bl	1357c <barf>
    dcf8:	ebffefd0 	bl	9c40 <reopen_log>
    dcfc:	e3e03f62 	mvn	r3, #392	; 0x188
    dd00:	e24b200c 	sub	r2, fp, #12	; 0xc
    dd04:	e7d23003 	ldrb	r3, [r2, r3]
    dd08:	e3530000 	cmp	r3, #0	; 0x0
    dd0c:	0a000004 	beq	dd24 <main+0x1d4>
    dd10:	e59f0734 	ldr	r0, [pc, #1844]	; e44c <main+0x8fc>
    dd14:	e3a01000 	mov	r1, #0	; 0x0
    dd18:	e3a02018 	mov	r2, #24	; 0x18
    dd1c:	ebffedc4 	bl	9434 <_init+0x334>
    dd20:	ebffff5a 	bl	da90 <daemonize>
    dd24:	e51b319c 	ldr	r3, [fp, -#412]
    dd28:	e3530000 	cmp	r3, #0	; 0x0
    dd2c:	0a000001 	beq	dd38 <main+0x1e8>
    dd30:	e51b019c 	ldr	r0, [fp, -#412]
    dd34:	ebffff2b 	bl	d9e8 <write_pidfile>
    dd38:	eb001388 	bl	12b60 <talloc_enable_leak_report_full>
    dd3c:	eb001558 	bl	132a4 <talloc_autofree_context>
    dd40:	e1a03000 	mov	r3, r0
    dd44:	e1a00003 	mov	r0, r3
    dd48:	e3a01004 	mov	r1, #4	; 0x4
    dd4c:	e59f26fc 	ldr	r2, [pc, #1788]	; e450 <main+0x900>
    dd50:	eb000ef1 	bl	1191c <talloc_named_const>
    dd54:	e50b001c 	str	r0, [fp, -#28]
    dd58:	e3a00001 	mov	r0, #1	; 0x1
    dd5c:	e3a01001 	mov	r1, #1	; 0x1
    dd60:	e3a02000 	mov	r2, #0	; 0x0
    dd64:	ebffee12 	bl	95b4 <_init+0x4b4>
    dd68:	e1a02000 	mov	r2, r0
    dd6c:	e51b301c 	ldr	r3, [fp, -#28]
    dd70:	e5832000 	str	r2, [r3]
    dd74:	e51b301c 	ldr	r3, [fp, -#28]
    dd78:	e5933000 	ldr	r3, [r3]
    dd7c:	e3530000 	cmp	r3, #0	; 0x0
    dd80:	aa000001 	bge	dd8c <main+0x23c>
    dd84:	e59f06c8 	ldr	r0, [pc, #1736]	; e454 <main+0x904>
    dd88:	eb001612 	bl	135d8 <barf_perror>
    dd8c:	eb001544 	bl	132a4 <talloc_autofree_context>
    dd90:	e1a03000 	mov	r3, r0
    dd94:	e1a00003 	mov	r0, r3
    dd98:	e3a01004 	mov	r1, #4	; 0x4
    dd9c:	e59f26ac 	ldr	r2, [pc, #1708]	; e450 <main+0x900>
    dda0:	eb000edd 	bl	1191c <talloc_named_const>
    dda4:	e50b0020 	str	r0, [fp, -#32]
    dda8:	e3a00001 	mov	r0, #1	; 0x1
    ddac:	e3a01001 	mov	r1, #1	; 0x1
    ddb0:	e3a02000 	mov	r2, #0	; 0x0
    ddb4:	ebffedfe 	bl	95b4 <_init+0x4b4>
    ddb8:	e1a02000 	mov	r2, r0
    ddbc:	e51b3020 	ldr	r3, [fp, -#32]
    ddc0:	e5832000 	str	r2, [r3]
    ddc4:	e51b3020 	ldr	r3, [fp, -#32]
    ddc8:	e5933000 	ldr	r3, [r3]
    ddcc:	e3530000 	cmp	r3, #0	; 0x0
    ddd0:	aa000001 	bge	dddc <main+0x28c>
    ddd4:	e59f0678 	ldr	r0, [pc, #1656]	; e454 <main+0x904>
    ddd8:	eb0015fe 	bl	135d8 <barf_perror>
    dddc:	e51b001c 	ldr	r0, [fp, -#28]
    dde0:	e59f1670 	ldr	r1, [pc, #1648]	; e458 <main+0x908>
    dde4:	eb000d05 	bl	11200 <talloc_set_destructor>
    dde8:	e51b0020 	ldr	r0, [fp, -#32]
    ddec:	e59f1664 	ldr	r1, [pc, #1636]	; e458 <main+0x908>
    ddf0:	eb000d02 	bl	11200 <talloc_set_destructor>
    ddf4:	e3a0000d 	mov	r0, #13	; 0xd
    ddf8:	e3a01001 	mov	r1, #1	; 0x1
    ddfc:	ebffed00 	bl	9204 <_init+0x104>
    de00:	eb000b17 	bl	10a64 <xs_daemon_socket>
    de04:	e1a03000 	mov	r3, r0
    de08:	e1a00003 	mov	r0, r3
    de0c:	ebffed04 	bl	9224 <_init+0x124>
    de10:	eb000b1a 	bl	10a80 <xs_daemon_socket_ro>
    de14:	e1a03000 	mov	r3, r0
    de18:	e1a00003 	mov	r0, r3
    de1c:	ebffed00 	bl	9224 <_init+0x124>
    de20:	e3a03001 	mov	r3, #1	; 0x1
    de24:	e14b39b4 	strh	r3, [fp, -#148]
    de28:	eb000b0d 	bl	10a64 <xs_daemon_socket>
    de2c:	e1a02000 	mov	r2, r0
    de30:	e24b3094 	sub	r3, fp, #148	; 0x94
    de34:	e2833002 	add	r3, r3, #2	; 0x2
    de38:	e1a00003 	mov	r0, r3
    de3c:	e1a01002 	mov	r1, r2
    de40:	ebffede3 	bl	95d4 <_init+0x4d4>
    de44:	e51b301c 	ldr	r3, [fp, -#28]
    de48:	e24b2094 	sub	r2, fp, #148	; 0x94
    de4c:	e5930000 	ldr	r0, [r3]
    de50:	e1a01002 	mov	r1, r2
    de54:	e3a02070 	mov	r2, #112	; 0x70
    de58:	ebffed89 	bl	9484 <_init+0x384>
    de5c:	e1a03000 	mov	r3, r0
    de60:	e3530000 	cmp	r3, #0	; 0x0
    de64:	0a000004 	beq	de7c <main+0x32c>
    de68:	eb000afd 	bl	10a64 <xs_daemon_socket>
    de6c:	e1a03000 	mov	r3, r0
    de70:	e59f05e4 	ldr	r0, [pc, #1508]	; e45c <main+0x90c>
    de74:	e1a01003 	mov	r1, r3
    de78:	eb0015d6 	bl	135d8 <barf_perror>
    de7c:	eb000aff 	bl	10a80 <xs_daemon_socket_ro>
    de80:	e1a02000 	mov	r2, r0
    de84:	e24b3094 	sub	r3, fp, #148	; 0x94
    de88:	e2833002 	add	r3, r3, #2	; 0x2
    de8c:	e1a00003 	mov	r0, r3
    de90:	e1a01002 	mov	r1, r2
    de94:	ebffedce 	bl	95d4 <_init+0x4d4>
    de98:	e51b3020 	ldr	r3, [fp, -#32]
    de9c:	e24b2094 	sub	r2, fp, #148	; 0x94
    dea0:	e5930000 	ldr	r0, [r3]
    dea4:	e1a01002 	mov	r1, r2
    dea8:	e3a02070 	mov	r2, #112	; 0x70
    deac:	ebffed74 	bl	9484 <_init+0x384>
    deb0:	e1a03000 	mov	r3, r0
    deb4:	e3530000 	cmp	r3, #0	; 0x0
    deb8:	0a000004 	beq	ded0 <main+0x380>
    debc:	eb000aef 	bl	10a80 <xs_daemon_socket_ro>
    dec0:	e1a03000 	mov	r3, r0
    dec4:	e59f0590 	ldr	r0, [pc, #1424]	; e45c <main+0x90c>
    dec8:	e1a01003 	mov	r1, r3
    decc:	eb0015c1 	bl	135d8 <barf_perror>
    ded0:	eb000ae3 	bl	10a64 <xs_daemon_socket>
    ded4:	e1a03000 	mov	r3, r0
    ded8:	e1a00003 	mov	r0, r3
    dedc:	e3a01d06 	mov	r1, #384	; 0x180
    dee0:	ebffecf7 	bl	92c4 <_init+0x1c4>
    dee4:	e1a03000 	mov	r3, r0
    dee8:	e3530000 	cmp	r3, #0	; 0x0
    deec:	1a000008 	bne	df14 <main+0x3c4>
    def0:	eb000ae2 	bl	10a80 <xs_daemon_socket_ro>
    def4:	e1a03000 	mov	r3, r0
    def8:	e1a00003 	mov	r0, r3
    defc:	e3a01e1b 	mov	r1, #432	; 0x1b0
    df00:	ebffecef 	bl	92c4 <_init+0x1c4>
    df04:	e1a03000 	mov	r3, r0
    df08:	e3530000 	cmp	r3, #0	; 0x0
    df0c:	1a000000 	bne	df14 <main+0x3c4>
    df10:	ea000001 	b	df1c <main+0x3cc>
    df14:	e59f0544 	ldr	r0, [pc, #1348]	; e460 <main+0x910>
    df18:	eb0015ae 	bl	135d8 <barf_perror>
    df1c:	e51b301c 	ldr	r3, [fp, -#28]
    df20:	e5930000 	ldr	r0, [r3]
    df24:	e3a01001 	mov	r1, #1	; 0x1
    df28:	ebffece9 	bl	92d4 <_init+0x1d4>
    df2c:	e1a03000 	mov	r3, r0
    df30:	e3530000 	cmp	r3, #0	; 0x0
    df34:	1a000007 	bne	df58 <main+0x408>
    df38:	e51b3020 	ldr	r3, [fp, -#32]
    df3c:	e5930000 	ldr	r0, [r3]
    df40:	e3a01001 	mov	r1, #1	; 0x1
    df44:	ebffece2 	bl	92d4 <_init+0x1d4>
    df48:	e1a03000 	mov	r3, r0
    df4c:	e3530000 	cmp	r3, #0	; 0x0
    df50:	1a000000 	bne	df58 <main+0x408>
    df54:	ea000001 	b	df60 <main+0x410>
    df58:	e59f0504 	ldr	r0, [pc, #1284]	; e464 <main+0x914>
    df5c:	eb00159d 	bl	135d8 <barf_perror>
    df60:	e59f0500 	ldr	r0, [pc, #1280]	; e468 <main+0x918>
    df64:	ebffecea 	bl	9314 <_init+0x214>
    df68:	e1a03000 	mov	r3, r0
    df6c:	e3530000 	cmp	r3, #0	; 0x0
    df70:	0a000001 	beq	df7c <main+0x42c>
    df74:	e59f04f0 	ldr	r0, [pc, #1264]	; e46c <main+0x91c>
    df78:	eb001596 	bl	135d8 <barf_perror>
    df7c:	ebfffc46 	bl	d09c <setup_structure>
    df80:	e59f349c 	ldr	r3, [pc, #1180]	; e424 <main+0x8d4>
    df84:	e24b100c 	sub	r1, fp, #12	; 0xc
    df88:	e7d13003 	ldrb	r3, [r1, r3]
    df8c:	e3530000 	cmp	r3, #0	; 0x0
    df90:	1a000000 	bne	df98 <main+0x448>
    df94:	eb0007aa 	bl	fe44 <domain_init>
    df98:	eb00073b 	bl	fc8c <restore_existing_connections>
    df9c:	e59f347c 	ldr	r3, [pc, #1148]	; e420 <main+0x8d0>
    dfa0:	e24b200c 	sub	r2, fp, #12	; 0xc
    dfa4:	e7d23003 	ldrb	r3, [r2, r3]
    dfa8:	e3530000 	cmp	r3, #0	; 0x0
    dfac:	0a000007 	beq	dfd0 <main+0x480>
    dfb0:	ebffec6b 	bl	9164 <_init+0x64>
    dfb4:	e1a03000 	mov	r3, r0
    dfb8:	e59f04b0 	ldr	r0, [pc, #1200]	; e470 <main+0x920>
    dfbc:	e1a01003 	mov	r1, r3
    dfc0:	ebffed2b 	bl	9474 <_init+0x374>
    dfc4:	e59f34a8 	ldr	r3, [pc, #1192]	; e474 <main+0x924>
    dfc8:	e5930000 	ldr	r0, [r3]
    dfcc:	ebffec90 	bl	9214 <_init+0x114>
    dfd0:	e3e03f62 	mvn	r3, #392	; 0x188
    dfd4:	e24b100c 	sub	r1, fp, #12	; 0xc
    dfd8:	e7d13003 	ldrb	r3, [r1, r3]
    dfdc:	e3530000 	cmp	r3, #0	; 0x0
    dfe0:	0a000005 	beq	dffc <main+0x4ac>
    dfe4:	e3a00000 	mov	r0, #0	; 0x0
    dfe8:	ebffec6d 	bl	91a4 <_init+0xa4>
    dfec:	e3a00001 	mov	r0, #1	; 0x1
    dff0:	ebffec6b 	bl	91a4 <_init+0xa4>
    dff4:	e3a00002 	mov	r0, #2	; 0x2
    dff8:	ebffec69 	bl	91a4 <_init+0xa4>
    dffc:	e3a00001 	mov	r0, #1	; 0x1
    e000:	e59f1470 	ldr	r1, [pc, #1136]	; e478 <main+0x928>
    e004:	ebffec7e 	bl	9204 <_init+0x104>
    e008:	e24b3f45 	sub	r3, fp, #276	; 0x114
    e00c:	e24b2f65 	sub	r2, fp, #404	; 0x194
    e010:	e51bc01c 	ldr	ip, [fp, -#28]
    e014:	e51be020 	ldr	lr, [fp, -#32]
    e018:	e1a00003 	mov	r0, r3
    e01c:	e1a01002 	mov	r1, r2
    e020:	e59c2000 	ldr	r2, [ip]
    e024:	e59e3000 	ldr	r3, [lr]
    e028:	ebfff04a 	bl	a158 <initialize_set>
    e02c:	e1a03000 	mov	r3, r0
    e030:	e50b3024 	str	r3, [fp, -#36]
    e034:	e59f0440 	ldr	r0, [pc, #1088]	; e47c <main+0x92c>
    e038:	ebffed0d 	bl	9474 <_init+0x374>
    e03c:	e51b3024 	ldr	r3, [fp, -#36]
    e040:	e2832001 	add	r2, r3, #1	; 0x1
    e044:	e24b1f45 	sub	r1, fp, #276	; 0x114
    e048:	e24bcf65 	sub	ip, fp, #404	; 0x194
    e04c:	e3a03000 	mov	r3, #0	; 0x0
    e050:	e58d3000 	str	r3, [sp]
    e054:	e1a00002 	mov	r0, r2
    e058:	e1a0200c 	mov	r2, ip
    e05c:	e3a03000 	mov	r3, #0	; 0x0
    e060:	ebffec77 	bl	9244 <_init+0x144>
    e064:	e1a03000 	mov	r3, r0
    e068:	e3530000 	cmp	r3, #0	; 0x0
    e06c:	aa000007 	bge	e090 <main+0x540>
    e070:	ebffec87 	bl	9294 <_init+0x194>
    e074:	e1a03000 	mov	r3, r0
    e078:	e5933000 	ldr	r3, [r3]
    e07c:	e3530004 	cmp	r3, #4	; 0x4
    e080:	1a000000 	bne	e088 <main+0x538>
    e084:	eaffffec 	b	e03c <main+0x4ec>
    e088:	e59f03f0 	ldr	r0, [pc, #1008]	; e480 <main+0x930>
    e08c:	eb001551 	bl	135d8 <barf_perror>
    e090:	e59f33d0 	ldr	r3, [pc, #976]	; e468 <main+0x918>
    e094:	e5933000 	ldr	r3, [r3]
    e098:	e1a032a3 	mov	r3, r3, lsr #5
    e09c:	e59f23e0 	ldr	r2, [pc, #992]	; e484 <main+0x934>
    e0a0:	e1a03103 	mov	r3, r3, lsl #2
    e0a4:	e24b100c 	sub	r1, fp, #12	; 0xc
    e0a8:	e0833001 	add	r3, r3, r1
    e0ac:	e0831002 	add	r1, r3, r2
    e0b0:	e59f33b0 	ldr	r3, [pc, #944]	; e468 <main+0x918>
    e0b4:	e5933000 	ldr	r3, [r3]
    e0b8:	e203201f 	and	r2, r3, #31	; 0x1f
    e0bc:	e5913000 	ldr	r3, [r1]
    e0c0:	e1a03253 	mov	r3, r3, asr r2
    e0c4:	e2033001 	and	r3, r3, #1	; 0x1
    e0c8:	e3530000 	cmp	r3, #0	; 0x0
    e0cc:	0a000009 	beq	e0f8 <main+0x5a8>
    e0d0:	e59f03b0 	ldr	r0, [pc, #944]	; e488 <main+0x938>
    e0d4:	ebffece6 	bl	9474 <_init+0x374>
    e0d8:	e59f2388 	ldr	r2, [pc, #904]	; e468 <main+0x918>
    e0dc:	e24b3e1a 	sub	r3, fp, #416	; 0x1a0
    e0e0:	e2433001 	sub	r3, r3, #1	; 0x1
    e0e4:	e5920000 	ldr	r0, [r2]
    e0e8:	e1a01003 	mov	r1, r3
    e0ec:	e3a02001 	mov	r2, #1	; 0x1
    e0f0:	ebffed33 	bl	95c4 <_init+0x4c4>
    e0f4:	ebffeed1 	bl	9c40 <reopen_log>
    e0f8:	e51b301c 	ldr	r3, [fp, -#28]
    e0fc:	e5933000 	ldr	r3, [r3]
    e100:	e1a032a3 	mov	r3, r3, lsr #5
    e104:	e59f2378 	ldr	r2, [pc, #888]	; e484 <main+0x934>
    e108:	e1a03103 	mov	r3, r3, lsl #2
    e10c:	e24b100c 	sub	r1, fp, #12	; 0xc
    e110:	e0833001 	add	r3, r3, r1
    e114:	e0831002 	add	r1, r3, r2
    e118:	e51b301c 	ldr	r3, [fp, -#28]
    e11c:	e5933000 	ldr	r3, [r3]
    e120:	e203201f 	and	r2, r3, #31	; 0x1f
    e124:	e5913000 	ldr	r3, [r1]
    e128:	e1a03253 	mov	r3, r3, asr r2
    e12c:	e2033001 	and	r3, r3, #1	; 0x1
    e130:	e3530000 	cmp	r3, #0	; 0x0
    e134:	0a000005 	beq	e150 <main+0x600>
    e138:	e59f034c 	ldr	r0, [pc, #844]	; e48c <main+0x93c>
    e13c:	ebffeccc 	bl	9474 <_init+0x374>
    e140:	e51b301c 	ldr	r3, [fp, -#28]
    e144:	e5930000 	ldr	r0, [r3]
    e148:	e3a01001 	mov	r1, #1	; 0x1
    e14c:	ebfffae5 	bl	cce8 <accept_connection>
    e150:	e51b3020 	ldr	r3, [fp, -#32]
    e154:	e5933000 	ldr	r3, [r3]
    e158:	e1a032a3 	mov	r3, r3, lsr #5
    e15c:	e59f2320 	ldr	r2, [pc, #800]	; e484 <main+0x934>
    e160:	e1a03103 	mov	r3, r3, lsl #2
    e164:	e24b100c 	sub	r1, fp, #12	; 0xc
    e168:	e0833001 	add	r3, r3, r1
    e16c:	e0831002 	add	r1, r3, r2
    e170:	e51b3020 	ldr	r3, [fp, -#32]
    e174:	e5933000 	ldr	r3, [r3]
    e178:	e203201f 	and	r2, r3, #31	; 0x1f
    e17c:	e5913000 	ldr	r3, [r1]
    e180:	e1a03253 	mov	r3, r3, asr r2
    e184:	e2033001 	and	r3, r3, #1	; 0x1
    e188:	e3530000 	cmp	r3, #0	; 0x0
    e18c:	0a000005 	beq	e1a8 <main+0x658>
    e190:	e59f02f8 	ldr	r0, [pc, #760]	; e490 <main+0x940>
    e194:	ebffecb6 	bl	9474 <_init+0x374>
    e198:	e51b3020 	ldr	r3, [fp, -#32]
    e19c:	e5930000 	ldr	r0, [r3]
    e1a0:	e3a01000 	mov	r1, #0	; 0x0
    e1a4:	ebfffacf 	bl	cce8 <accept_connection>
    e1a8:	e59f32e4 	ldr	r3, [pc, #740]	; e494 <main+0x944>
    e1ac:	e5933000 	ldr	r3, [r3]
    e1b0:	e3530000 	cmp	r3, #0	; 0x0
    e1b4:	da000012 	ble	e204 <main+0x6b4>
    e1b8:	e59f32d4 	ldr	r3, [pc, #724]	; e494 <main+0x944>
    e1bc:	e5933000 	ldr	r3, [r3]
    e1c0:	e1a032a3 	mov	r3, r3, lsr #5
    e1c4:	e59f22b8 	ldr	r2, [pc, #696]	; e484 <main+0x934>
    e1c8:	e1a03103 	mov	r3, r3, lsl #2
    e1cc:	e24b100c 	sub	r1, fp, #12	; 0xc
    e1d0:	e0833001 	add	r3, r3, r1
    e1d4:	e0831002 	add	r1, r3, r2
    e1d8:	e59f32b4 	ldr	r3, [pc, #692]	; e494 <main+0x944>
    e1dc:	e5933000 	ldr	r3, [r3]
    e1e0:	e203201f 	and	r2, r3, #31	; 0x1f
    e1e4:	e5913000 	ldr	r3, [r1]
    e1e8:	e1a03253 	mov	r3, r3, asr r2
    e1ec:	e2033001 	and	r3, r3, #1	; 0x1
    e1f0:	e3530000 	cmp	r3, #0	; 0x0
    e1f4:	0a000002 	beq	e204 <main+0x6b4>
    e1f8:	e59f0298 	ldr	r0, [pc, #664]	; e498 <main+0x948>
    e1fc:	ebffec9c 	bl	9474 <_init+0x374>
    e200:	eb00049c 	bl	f478 <handle_event>
    e204:	e59f0290 	ldr	r0, [pc, #656]	; e49c <main+0x94c>
    e208:	ebffec99 	bl	9474 <_init+0x374>
    e20c:	e59f328c 	ldr	r3, [pc, #652]	; e4a0 <main+0x950>
    e210:	e5933000 	ldr	r3, [r3]
    e214:	e50b31a8 	str	r3, [fp, -#424]
    e218:	e51b31a8 	ldr	r3, [fp, -#424]
    e21c:	e50b31a0 	str	r3, [fp, -#416]
    e220:	e51b21a0 	ldr	r2, [fp, -#416]
    e224:	e59f3274 	ldr	r3, [pc, #628]	; e4a0 <main+0x950>
    e228:	e1520003 	cmp	r2, r3
    e22c:	1a000000 	bne	e234 <main+0x6e4>
    e230:	ea000036 	b	e310 <main+0x7c0>
    e234:	e59f0268 	ldr	r0, [pc, #616]	; e4a4 <main+0x954>
    e238:	ebffec8d 	bl	9474 <_init+0x374>
    e23c:	e51b31a0 	ldr	r3, [fp, -#416]
    e240:	e5933030 	ldr	r3, [r3, #48]
    e244:	e3530000 	cmp	r3, #0	; 0x0
    e248:	0a000000 	beq	e250 <main+0x700>
    e24c:	ea000029 	b	e2f8 <main+0x7a8>
    e250:	e51b31a0 	ldr	r3, [fp, -#416]
    e254:	e5933008 	ldr	r3, [r3, #8]
    e258:	e1a032a3 	mov	r3, r3, lsr #5
    e25c:	e59f2220 	ldr	r2, [pc, #544]	; e484 <main+0x934>
    e260:	e1a03103 	mov	r3, r3, lsl #2
    e264:	e24b100c 	sub	r1, fp, #12	; 0xc
    e268:	e0833001 	add	r3, r3, r1
    e26c:	e0831002 	add	r1, r3, r2
    e270:	e51b31a0 	ldr	r3, [fp, -#416]
    e274:	e5933008 	ldr	r3, [r3, #8]
    e278:	e203201f 	and	r2, r3, #31	; 0x1f
    e27c:	e5913000 	ldr	r3, [r1]
    e280:	e1a03253 	mov	r3, r3, asr r2
    e284:	e2033001 	and	r3, r3, #1	; 0x1
    e288:	e3530000 	cmp	r3, #0	; 0x0
    e28c:	0a000004 	beq	e2a4 <main+0x754>
    e290:	e59f0210 	ldr	r0, [pc, #528]	; e4a8 <main+0x958>
    e294:	ebffec76 	bl	9474 <_init+0x374>
    e298:	e51b01a0 	ldr	r0, [fp, -#416]
    e29c:	ebfff989 	bl	c8c8 <handle_input>
    e2a0:	ea00001a 	b	e310 <main+0x7c0>
    e2a4:	e51b31a0 	ldr	r3, [fp, -#416]
    e2a8:	e5933008 	ldr	r3, [r3, #8]
    e2ac:	e1a032a3 	mov	r3, r3, lsr #5
    e2b0:	e59f21f4 	ldr	r2, [pc, #500]	; e4ac <main+0x95c>
    e2b4:	e1a03103 	mov	r3, r3, lsl #2
    e2b8:	e24b100c 	sub	r1, fp, #12	; 0xc
    e2bc:	e0833001 	add	r3, r3, r1
    e2c0:	e0831002 	add	r1, r3, r2
    e2c4:	e51b31a0 	ldr	r3, [fp, -#416]
    e2c8:	e5933008 	ldr	r3, [r3, #8]
    e2cc:	e203201f 	and	r2, r3, #31	; 0x1f
    e2d0:	e5913000 	ldr	r3, [r1]
    e2d4:	e1a03253 	mov	r3, r3, asr r2
    e2d8:	e2033001 	and	r3, r3, #1	; 0x1
    e2dc:	e3530000 	cmp	r3, #0	; 0x0
    e2e0:	0a000004 	beq	e2f8 <main+0x7a8>
    e2e4:	e59f01c4 	ldr	r0, [pc, #452]	; e4b0 <main+0x960>
    e2e8:	ebffec61 	bl	9474 <_init+0x374>
    e2ec:	e51b01a0 	ldr	r0, [fp, -#416]
    e2f0:	ebfff9ef 	bl	cab4 <handle_output>
    e2f4:	ea000005 	b	e310 <main+0x7c0>
    e2f8:	e51b31a0 	ldr	r3, [fp, -#416]
    e2fc:	e5933000 	ldr	r3, [r3]
    e300:	e50b31a8 	str	r3, [fp, -#424]
    e304:	e51b31a8 	ldr	r3, [fp, -#424]
    e308:	e50b31a0 	str	r3, [fp, -#416]
    e30c:	eaffffc3 	b	e220 <main+0x6d0>
    e310:	e59f019c 	ldr	r0, [pc, #412]	; e4b4 <main+0x964>
    e314:	ebffec56 	bl	9474 <_init+0x374>
    e318:	e59f3180 	ldr	r3, [pc, #384]	; e4a0 <main+0x950>
    e31c:	e5933000 	ldr	r3, [r3]
    e320:	e50b31a8 	str	r3, [fp, -#424]
    e324:	e51b31a8 	ldr	r3, [fp, -#424]
    e328:	e50b31a0 	str	r3, [fp, -#416]
    e32c:	e51b21a0 	ldr	r2, [fp, -#416]
    e330:	e59f3168 	ldr	r3, [pc, #360]	; e4a0 <main+0x950>
    e334:	e1520003 	cmp	r2, r3
    e338:	1a000000 	bne	e340 <main+0x7f0>
    e33c:	ea000029 	b	e3e8 <main+0x898>
    e340:	e59f0170 	ldr	r0, [pc, #368]	; e4b8 <main+0x968>
    e344:	ebffec4a 	bl	9474 <_init+0x374>
    e348:	e51b31a0 	ldr	r3, [fp, -#416]
    e34c:	e5933030 	ldr	r3, [r3, #48]
    e350:	e3530000 	cmp	r3, #0	; 0x0
    e354:	1a000000 	bne	e35c <main+0x80c>
    e358:	ea00001c 	b	e3d0 <main+0x880>
    e35c:	e51b01a0 	ldr	r0, [fp, -#416]
    e360:	eb00046f 	bl	f524 <domain_can_read>
    e364:	e1a03000 	mov	r3, r0
    e368:	e20330ff 	and	r3, r3, #255	; 0xff
    e36c:	e3530000 	cmp	r3, #0	; 0x0
    e370:	0a000004 	beq	e388 <main+0x838>
    e374:	e59f0140 	ldr	r0, [pc, #320]	; e4bc <main+0x96c>
    e378:	ebffec3d 	bl	9474 <_init+0x374>
    e37c:	e51b01a0 	ldr	r0, [fp, -#416]
    e380:	ebfff950 	bl	c8c8 <handle_input>
    e384:	eaffffe1 	b	e310 <main+0x7c0>
    e388:	e51b01a0 	ldr	r0, [fp, -#416]
    e38c:	eb000476 	bl	f56c <domain_can_write>
    e390:	e1a03000 	mov	r3, r0
    e394:	e20330ff 	and	r3, r3, #255	; 0xff
    e398:	e3530000 	cmp	r3, #0	; 0x0
    e39c:	0a00000b 	beq	e3d0 <main+0x880>
    e3a0:	e51b31a0 	ldr	r3, [fp, -#416]
    e3a4:	e2833018 	add	r3, r3, #24	; 0x18
    e3a8:	e1a00003 	mov	r0, r3
    e3ac:	eb0000a0 	bl	e634 <list_empty>
    e3b0:	e1a03000 	mov	r3, r0
    e3b4:	e3530000 	cmp	r3, #0	; 0x0
    e3b8:	1a000004 	bne	e3d0 <main+0x880>
    e3bc:	e59f00fc 	ldr	r0, [pc, #252]	; e4c0 <main+0x970>
    e3c0:	ebffec2b 	bl	9474 <_init+0x374>
    e3c4:	e51b01a0 	ldr	r0, [fp, -#416]
    e3c8:	ebfff9b9 	bl	cab4 <handle_output>
    e3cc:	eaffffcf 	b	e310 <main+0x7c0>
    e3d0:	e51b31a0 	ldr	r3, [fp, -#416]
    e3d4:	e5933000 	ldr	r3, [r3]
    e3d8:	e50b31a8 	str	r3, [fp, -#424]
    e3dc:	e51b31a8 	ldr	r3, [fp, -#424]
    e3e0:	e50b31a0 	str	r3, [fp, -#416]
    e3e4:	eaffffd0 	b	e32c <main+0x7dc>
    e3e8:	e24b3f45 	sub	r3, fp, #276	; 0x114
    e3ec:	e24b2f65 	sub	r2, fp, #404	; 0x194
    e3f0:	e51bc01c 	ldr	ip, [fp, -#28]
    e3f4:	e51be020 	ldr	lr, [fp, -#32]
    e3f8:	e1a00003 	mov	r0, r3
    e3fc:	e1a01002 	mov	r1, r2
    e400:	e59c2000 	ldr	r2, [ip]
    e404:	e59e3000 	ldr	r3, [lr]
    e408:	ebffef52 	bl	a158 <initialize_set>
    e40c:	e1a03000 	mov	r3, r0
    e410:	e50b3024 	str	r3, [fp, -#36]
    e414:	eaffff08 	b	e03c <main+0x4ec>
    e418:	e51b01ac 	ldr	r0, [fp, -#428]
    e41c:	e91ba800 	ldmdb	fp, {fp, sp, pc}
    e420:	fffffe76 	swinv	0x00fffe76
    e424:	fffffe75 	swinv	0x00fffe75
    e428:	0001b268 	andeq	fp, r1, r8, ror #4
    e42c:	00024810 	andeq	r4, r2, r0, lsl r8
    e430:	00024d08 	andeq	r4, r2, r8, lsl #26
    e434:	0002480c 	andeq	r4, r2, ip, lsl #16
    e438:	0002480d 	andeq	r4, r2, sp, lsl #16
    e43c:	00024d18 	andeq	r4, r2, r8, lsl sp
    e440:	00024d14 	andeq	r4, r2, r4, lsl sp
    e444:	00024d0c 	andeq	r4, r2, ip, lsl #26
    e448:	0001b274 	andeq	fp, r1, r4, ror r2
    e44c:	0001adf8 	streqd	sl, [r1], -r8
    e450:	0001a9ec 	andeq	sl, r1, ip, ror #19
    e454:	0001b290 	muleq	r1, r0, r2
    e458:	0000a320 	andeq	sl, r0, r0, lsr #6
    e45c:	0001b2a8 	andeq	fp, r1, r8, lsr #5
    e460:	0001b2c4 	andeq	fp, r1, r4, asr #5
    e464:	0001b2dc 	ldreqd	fp, [r1], -ip
    e468:	00024d1c 	andeq	r4, r2, ip, lsl sp
    e46c:	0001b2f8 	streqd	fp, [r1], -r8
    e470:	0001b300 	andeq	fp, r1, r0, lsl #6
    e474:	00024d00 	andeq	r4, r2, r0, lsl #26
    e478:	00009c04 	andeq	r9, r0, r4, lsl #24
    e47c:	0001b304 	andeq	fp, r1, r4, lsl #6
    e480:	0001b324 	andeq	fp, r1, r4, lsr #6
    e484:	fffffef8 	swinv	0x00fffef8
    e488:	0001b334 	andeq	fp, r1, r4, lsr r3
    e48c:	0001b340 	andeq	fp, r1, r0, asr #6
    e490:	0001b354 	andeq	fp, r1, r4, asr r3
    e494:	00024990 	muleq	r2, r0, r9
    e498:	0001b374 	andeq	fp, r1, r4, ror r3
    e49c:	0001b384 	andeq	fp, r1, r4, lsl #7
    e4a0:	00024800 	andeq	r4, r2, r0, lsl #16
    e4a4:	0001b394 	muleq	r1, r4, r3
    e4a8:	0001b3a0 	andeq	fp, r1, r0, lsr #7
    e4ac:	fffffe78 	swinv	0x00fffe78
    e4b0:	0001b3bc 	streqh	fp, [r1], -ip
    e4b4:	0001b3d8 	ldreqd	fp, [r1], -r8
    e4b8:	0001b3ec 	andeq	fp, r1, ip, ror #7
    e4bc:	0001b3fc 	streqd	fp, [r1], -ip
    e4c0:	0001b414 	andeq	fp, r1, r4, lsl r4

0000e4c4 <strends>:
    e4c4:	e1a0c00d 	mov	ip, sp
    e4c8:	e92dd810 	stmdb	sp!, {r4, fp, ip, lr, pc}
    e4cc:	e24cb004 	sub	fp, ip, #4	; 0x4
    e4d0:	e24dd010 	sub	sp, sp, #16	; 0x10
    e4d4:	e50b0014 	str	r0, [fp, -#20]
    e4d8:	e50b1018 	str	r1, [fp, -#24]
    e4dc:	e51b0014 	ldr	r0, [fp, -#20]
    e4e0:	ebffebbb 	bl	93d4 <_init+0x2d4>
    e4e4:	e1a03000 	mov	r3, r0
    e4e8:	e1a04003 	mov	r4, r3
    e4ec:	e51b0018 	ldr	r0, [fp, -#24]
    e4f0:	ebffebb7 	bl	93d4 <_init+0x2d4>
    e4f4:	e1a03000 	mov	r3, r0
    e4f8:	e1540003 	cmp	r4, r3
    e4fc:	2a000002 	bcs	e50c <strends+0x48>
    e500:	e3a03000 	mov	r3, #0	; 0x0
    e504:	e50b301c 	str	r3, [fp, -#28]
    e508:	ea000015 	b	e564 <strends+0xa0>
    e50c:	e51b0014 	ldr	r0, [fp, -#20]
    e510:	ebffebaf 	bl	93d4 <_init+0x2d4>
    e514:	e1a03000 	mov	r3, r0
    e518:	e1a02003 	mov	r2, r3
    e51c:	e51b3014 	ldr	r3, [fp, -#20]
    e520:	e0824003 	add	r4, r2, r3
    e524:	e51b0018 	ldr	r0, [fp, -#24]
    e528:	ebffeba9 	bl	93d4 <_init+0x2d4>
    e52c:	e1a03000 	mov	r3, r0
    e530:	e0633004 	rsb	r3, r3, r4
    e534:	e1a00003 	mov	r0, r3
    e538:	e51b1018 	ldr	r1, [fp, -#24]
    e53c:	ebffeb14 	bl	9194 <_init+0x94>
    e540:	e1a03000 	mov	r3, r0
    e544:	e50b3020 	str	r3, [fp, -#32]
    e548:	e51b3020 	ldr	r3, [fp, -#32]
    e54c:	e3530000 	cmp	r3, #0	; 0x0
    e550:	13a03000 	movne	r3, #0	; 0x0
    e554:	03a03001 	moveq	r3, #1	; 0x1
    e558:	e50b3020 	str	r3, [fp, -#32]
    e55c:	e51b3020 	ldr	r3, [fp, -#32]
    e560:	e50b301c 	str	r3, [fp, -#28]
    e564:	e51b001c 	ldr	r0, [fp, -#28]
    e568:	e91ba810 	ldmdb	fp, {r4, fp, sp, pc}

0000e56c <PTR_ERR>:
    e56c:	e1a0c00d 	mov	ip, sp
    e570:	e92dd800 	stmdb	sp!, {fp, ip, lr, pc}
    e574:	e24cb004 	sub	fp, ip, #4	; 0x4
    e578:	e24dd004 	sub	sp, sp, #4	; 0x4
    e57c:	e50b0010 	str	r0, [fp, -#16]
    e580:	e51b3010 	ldr	r3, [fp, -#16]
    e584:	e1a00003 	mov	r0, r3
    e588:	e91ba800 	ldmdb	fp, {fp, sp, pc}

0000e58c <IS_ERR>:
    e58c:	e1a0c00d 	mov	ip, sp
    e590:	e92dd800 	stmdb	sp!, {fp, ip, lr, pc}
    e594:	e24cb004 	sub	fp, ip, #4	; 0x4
    e598:	e24dd004 	sub	sp, sp, #4	; 0x4
    e59c:	e50b0010 	str	r0, [fp, -#16]
    e5a0:	e51b3010 	ldr	r3, [fp, -#16]
    e5a4:	e3730ffa 	cmn	r3, #1000	; 0x3e8
    e5a8:	93a03000 	movls	r3, #0	; 0x0
    e5ac:	83a03001 	movhi	r3, #1	; 0x1
    e5b0:	e1a00003 	mov	r0, r3
    e5b4:	e91ba800 	ldmdb	fp, {fp, sp, pc}

0000e5b8 <list_add_tail>:
    e5b8:	e1a0c00d 	mov	ip, sp
    e5bc:	e92dd800 	stmdb	sp!, {fp, ip, lr, pc}
    e5c0:	e24cb004 	sub	fp, ip, #4	; 0x4
    e5c4:	e24dd008 	sub	sp, sp, #8	; 0x8
    e5c8:	e50b0010 	str	r0, [fp, -#16]
    e5cc:	e50b1014 	str	r1, [fp, -#20]
    e5d0:	e51b3014 	ldr	r3, [fp, -#20]
    e5d4:	e51b0010 	ldr	r0, [fp, -#16]
    e5d8:	e5931004 	ldr	r1, [r3, #4]
    e5dc:	e51b2014 	ldr	r2, [fp, -#20]
    e5e0:	eb000020 	bl	e668 <__list_add>
    e5e4:	e91ba800 	ldmdb	fp, {fp, sp, pc}

0000e5e8 <list_del>:
    e5e8:	e1a0c00d 	mov	ip, sp
    e5ec:	e92dd800 	stmdb	sp!, {fp, ip, lr, pc}
    e5f0:	e24cb004 	sub	fp, ip, #4	; 0x4
    e5f4:	e24dd004 	sub	sp, sp, #4	; 0x4
    e5f8:	e50b0010 	str	r0, [fp, -#16]
    e5fc:	e51b3010 	ldr	r3, [fp, -#16]
    e600:	e51b2010 	ldr	r2, [fp, -#16]
    e604:	e5930004 	ldr	r0, [r3, #4]
    e608:	e5921000 	ldr	r1, [r2]
    e60c:	eb000029 	bl	e6b8 <__list_del>
    e610:	e51b2010 	ldr	r2, [fp, -#16]
    e614:	e59f3010 	ldr	r3, [pc, #16]	; e62c <list_del+0x44>
    e618:	e5823000 	str	r3, [r2]
    e61c:	e51b2010 	ldr	r2, [fp, -#16]
    e620:	e59f3008 	ldr	r3, [pc, #8]	; e630 <list_del+0x48>
    e624:	e5823004 	str	r3, [r2, #4]
    e628:	e91ba800 	ldmdb	fp, {fp, sp, pc}
    e62c:	00100100 	andeqs	r0, r0, r0, lsl #2
    e630:	00200200 	eoreq	r0, r0, r0, lsl #4

0000e634 <list_empty>:
    e634:	e1a0c00d 	mov	ip, sp
    e638:	e92dd800 	stmdb	sp!, {fp, ip, lr, pc}
    e63c:	e24cb004 	sub	fp, ip, #4	; 0x4
    e640:	e24dd004 	sub	sp, sp, #4	; 0x4
    e644:	e50b0010 	str	r0, [fp, -#16]
    e648:	e51b3010 	ldr	r3, [fp, -#16]
    e64c:	e5932000 	ldr	r2, [r3]
    e650:	e51b3010 	ldr	r3, [fp, -#16]
    e654:	e1520003 	cmp	r2, r3
    e658:	13a03000 	movne	r3, #0	; 0x0
    e65c:	03a03001 	moveq	r3, #1	; 0x1
    e660:	e1a00003 	mov	r0, r3
    e664:	e91ba800 	ldmdb	fp, {fp, sp, pc}

0000e668 <__list_add>:
    e668:	e1a0c00d 	mov	ip, sp
    e66c:	e92dd800 	stmdb	sp!, {fp, ip, lr, pc}
    e670:	e24cb004 	sub	fp, ip, #4	; 0x4
    e674:	e24dd00c 	sub	sp, sp, #12	; 0xc
    e678:	e50b0010 	str	r0, [fp, -#16]
    e67c:	e50b1014 	str	r1, [fp, -#20]
    e680:	e50b2018 	str	r2, [fp, -#24]
    e684:	e51b2018 	ldr	r2, [fp, -#24]
    e688:	e51b3010 	ldr	r3, [fp, -#16]
    e68c:	e5823004 	str	r3, [r2, #4]
    e690:	e51b2010 	ldr	r2, [fp, -#16]
    e694:	e51b3018 	ldr	r3, [fp, -#24]
    e698:	e5823000 	str	r3, [r2]
    e69c:	e51b2010 	ldr	r2, [fp, -#16]
    e6a0:	e51b3014 	ldr	r3, [fp, -#20]
    e6a4:	e5823004 	str	r3, [r2, #4]
    e6a8:	e51b2014 	ldr	r2, [fp, -#20]
    e6ac:	e51b3010 	ldr	r3, [fp, -#16]
    e6b0:	e5823000 	str	r3, [r2]
    e6b4:	e91ba800 	ldmdb	fp, {fp, sp, pc}

0000e6b8 <__list_del>:
    e6b8:	e1a0c00d 	mov	ip, sp
    e6bc:	e92dd800 	stmdb	sp!, {fp, ip, lr, pc}
    e6c0:	e24cb004 	sub	fp, ip, #4	; 0x4
    e6c4:	e24dd008 	sub	sp, sp, #8	; 0x8
    e6c8:	e50b0010 	str	r0, [fp, -#16]
    e6cc:	e50b1014 	str	r1, [fp, -#20]
    e6d0:	e51b2014 	ldr	r2, [fp, -#20]
    e6d4:	e51b3010 	ldr	r3, [fp, -#16]
    e6d8:	e5823004 	str	r3, [r2, #4]
    e6dc:	e51b2010 	ldr	r2, [fp, -#16]
    e6e0:	e51b3014 	ldr	r3, [fp, -#20]
    e6e4:	e5823000 	str	r3, [r2]
    e6e8:	e91ba800 	ldmdb	fp, {fp, sp, pc}

0000e6ec <add_event>:
    e6ec:	e1a0c00d 	mov	ip, sp
    e6f0:	e92dd810 	stmdb	sp!, {r4, fp, ip, lr, pc}
    e6f4:	e24cb004 	sub	fp, ip, #4	; 0x4
    e6f8:	e24dd018 	sub	sp, sp, #24	; 0x18
    e6fc:	e50b0014 	str	r0, [fp, -#20]
    e700:	e50b1018 	str	r1, [fp, -#24]
    e704:	e50b201c 	str	r2, [fp, -#28]
    e708:	e51b001c 	ldr	r0, [fp, -#28]
    e70c:	ebfff35f 	bl	b490 <check_event_node>
    e710:	e1a03000 	mov	r3, r0
    e714:	e20330ff 	and	r3, r3, #255	; 0xff
    e718:	e3530000 	cmp	r3, #0	; 0x0
    e71c:	1a00000e 	bne	e75c <add_event+0x70>
    e720:	e51b0014 	ldr	r0, [fp, -#20]
    e724:	e51b101c 	ldr	r1, [fp, -#28]
    e728:	e3a02001 	mov	r2, #1	; 0x1
    e72c:	ebfff14c 	bl	ac64 <get_node>
    e730:	e1a03000 	mov	r3, r0
    e734:	e50b3028 	str	r3, [fp, -#40]
    e738:	e51b3028 	ldr	r3, [fp, -#40]
    e73c:	e3530000 	cmp	r3, #0	; 0x0
    e740:	1a000005 	bne	e75c <add_event+0x70>
    e744:	ebffead2 	bl	9294 <_init+0x194>
    e748:	e1a03000 	mov	r3, r0
    e74c:	e5933000 	ldr	r3, [r3]
    e750:	e3530002 	cmp	r3, #2	; 0x2
    e754:	0a000000 	beq	e75c <add_event+0x70>
    e758:	ea000038 	b	e840 <add_event+0x154>
    e75c:	e51b3018 	ldr	r3, [fp, -#24]
    e760:	e5933010 	ldr	r3, [r3, #16]
    e764:	e3530000 	cmp	r3, #0	; 0x0
    e768:	0a00000e 	beq	e7a8 <add_event+0xbc>
    e76c:	e51b3018 	ldr	r3, [fp, -#24]
    e770:	e5930010 	ldr	r0, [r3, #16]
    e774:	ebffeb16 	bl	93d4 <_init+0x2d4>
    e778:	e1a03000 	mov	r3, r0
    e77c:	e1a02003 	mov	r2, r3
    e780:	e51b301c 	ldr	r3, [fp, -#28]
    e784:	e0833002 	add	r3, r3, r2
    e788:	e50b301c 	str	r3, [fp, -#28]
    e78c:	e51b301c 	ldr	r3, [fp, -#28]
    e790:	e5d33000 	ldrb	r3, [r3]
    e794:	e353002f 	cmp	r3, #47	; 0x2f
    e798:	1a000002 	bne	e7a8 <add_event+0xbc>
    e79c:	e51b301c 	ldr	r3, [fp, -#28]
    e7a0:	e2833001 	add	r3, r3, #1	; 0x1
    e7a4:	e50b301c 	str	r3, [fp, -#28]
    e7a8:	e51b001c 	ldr	r0, [fp, -#28]
    e7ac:	ebffeb08 	bl	93d4 <_init+0x2d4>
    e7b0:	e1a03000 	mov	r3, r0
    e7b4:	e1a04003 	mov	r4, r3
    e7b8:	e51b3018 	ldr	r3, [fp, -#24]
    e7bc:	e5930014 	ldr	r0, [r3, #20]
    e7c0:	ebffeb03 	bl	93d4 <_init+0x2d4>
    e7c4:	e1a03000 	mov	r3, r0
    e7c8:	e0843003 	add	r3, r4, r3
    e7cc:	e2833002 	add	r3, r3, #2	; 0x2
    e7d0:	e50b3020 	str	r3, [fp, -#32]
    e7d4:	e51b0018 	ldr	r0, [fp, -#24]
    e7d8:	e3a01001 	mov	r1, #1	; 0x1
    e7dc:	e51b2020 	ldr	r2, [fp, -#32]
    e7e0:	e59f305c 	ldr	r3, [pc, #92]	; e844 <add_event+0x158>
    e7e4:	eb00123c 	bl	130dc <_talloc_array>
    e7e8:	e50b0024 	str	r0, [fp, -#36]
    e7ec:	e51b0024 	ldr	r0, [fp, -#36]
    e7f0:	e51b101c 	ldr	r1, [fp, -#28]
    e7f4:	ebffeb76 	bl	95d4 <_init+0x4d4>
    e7f8:	e51b001c 	ldr	r0, [fp, -#28]
    e7fc:	ebffeaf4 	bl	93d4 <_init+0x2d4>
    e800:	e1a03000 	mov	r3, r0
    e804:	e1a02003 	mov	r2, r3
    e808:	e51b3024 	ldr	r3, [fp, -#36]
    e80c:	e0823003 	add	r3, r2, r3
    e810:	e2833001 	add	r3, r3, #1	; 0x1
    e814:	e51b2018 	ldr	r2, [fp, -#24]
    e818:	e1a00003 	mov	r0, r3
    e81c:	e5921014 	ldr	r1, [r2, #20]
    e820:	ebffeb6b 	bl	95d4 <_init+0x4d4>
    e824:	e51b0014 	ldr	r0, [fp, -#20]
    e828:	e3a0100f 	mov	r1, #15	; 0xf
    e82c:	e51b2024 	ldr	r2, [fp, -#36]
    e830:	e51b3020 	ldr	r3, [fp, -#32]
    e834:	ebfff1c1 	bl	af40 <send_reply>
    e838:	e51b0024 	ldr	r0, [fp, -#36]
    e83c:	eb000ced 	bl	11bf8 <talloc_free>
    e840:	e91ba810 	ldmdb	fp, {r4, fp, sp, pc}
    e844:	0001b4a0 	andeq	fp, r1, r0, lsr #9

0000e848 <fire_watches>:
    e848:	e1a0c00d 	mov	ip, sp
    e84c:	e92dd800 	stmdb	sp!, {fp, ip, lr, pc}
    e850:	e24cb004 	sub	fp, ip, #4	; 0x4
    e854:	e24dd018 	sub	sp, sp, #24	; 0x18
    e858:	e50b0010 	str	r0, [fp, -#16]
    e85c:	e50b1014 	str	r1, [fp, -#20]
    e860:	e1a03002 	mov	r3, r2
    e864:	e54b3015 	strb	r3, [fp, -#21]
    e868:	e51b3010 	ldr	r3, [fp, -#16]
    e86c:	e3530000 	cmp	r3, #0	; 0x0
    e870:	0a000004 	beq	e888 <fire_watches+0x40>
    e874:	e51b3010 	ldr	r3, [fp, -#16]
    e878:	e5933020 	ldr	r3, [r3, #32]
    e87c:	e3530000 	cmp	r3, #0	; 0x0
    e880:	0a000000 	beq	e888 <fire_watches+0x40>
    e884:	ea00003f 	b	e988 <fire_watches+0x140>
    e888:	e59f30fc 	ldr	r3, [pc, #252]	; e98c <fire_watches+0x144>
    e88c:	e5933000 	ldr	r3, [r3]
    e890:	e50b3024 	str	r3, [fp, -#36]
    e894:	e51b3024 	ldr	r3, [fp, -#36]
    e898:	e50b301c 	str	r3, [fp, -#28]
    e89c:	e51b201c 	ldr	r2, [fp, -#28]
    e8a0:	e59f30e4 	ldr	r3, [pc, #228]	; e98c <fire_watches+0x144>
    e8a4:	e1520003 	cmp	r2, r3
    e8a8:	1a000000 	bne	e8b0 <fire_watches+0x68>
    e8ac:	ea000035 	b	e988 <fire_watches+0x140>
    e8b0:	e3a02034 	mov	r2, #52	; 0x34
    e8b4:	e51b301c 	ldr	r3, [fp, -#28]
    e8b8:	e0823003 	add	r3, r2, r3
    e8bc:	e5933000 	ldr	r3, [r3]
    e8c0:	e50b3024 	str	r3, [fp, -#36]
    e8c4:	e51b3024 	ldr	r3, [fp, -#36]
    e8c8:	e50b3020 	str	r3, [fp, -#32]
    e8cc:	e51b301c 	ldr	r3, [fp, -#28]
    e8d0:	e2832034 	add	r2, r3, #52	; 0x34
    e8d4:	e51b3020 	ldr	r3, [fp, -#32]
    e8d8:	e1530002 	cmp	r3, r2
    e8dc:	1a000000 	bne	e8e4 <fire_watches+0x9c>
    e8e0:	ea000022 	b	e970 <fire_watches+0x128>
    e8e4:	e51b3020 	ldr	r3, [fp, -#32]
    e8e8:	e51b0014 	ldr	r0, [fp, -#20]
    e8ec:	e5931018 	ldr	r1, [r3, #24]
    e8f0:	ebffeec5 	bl	a40c <is_child>
    e8f4:	e1a03000 	mov	r3, r0
    e8f8:	e20330ff 	and	r3, r3, #255	; 0xff
    e8fc:	e3530000 	cmp	r3, #0	; 0x0
    e900:	0a000004 	beq	e918 <fire_watches+0xd0>
    e904:	e51b001c 	ldr	r0, [fp, -#28]
    e908:	e51b1020 	ldr	r1, [fp, -#32]
    e90c:	e51b2014 	ldr	r2, [fp, -#20]
    e910:	ebffff75 	bl	e6ec <add_event>
    e914:	ea00000f 	b	e958 <fire_watches+0x110>
    e918:	e55b3015 	ldrb	r3, [fp, -#21]
    e91c:	e3530000 	cmp	r3, #0	; 0x0
    e920:	0a00000c 	beq	e958 <fire_watches+0x110>
    e924:	e51b3020 	ldr	r3, [fp, -#32]
    e928:	e5930018 	ldr	r0, [r3, #24]
    e92c:	e51b1014 	ldr	r1, [fp, -#20]
    e930:	ebffeeb5 	bl	a40c <is_child>
    e934:	e1a03000 	mov	r3, r0
    e938:	e20330ff 	and	r3, r3, #255	; 0xff
    e93c:	e3530000 	cmp	r3, #0	; 0x0
    e940:	0a000004 	beq	e958 <fire_watches+0x110>
    e944:	e51b3020 	ldr	r3, [fp, -#32]
    e948:	e51b001c 	ldr	r0, [fp, -#28]
    e94c:	e51b1020 	ldr	r1, [fp, -#32]
    e950:	e5932018 	ldr	r2, [r3, #24]
    e954:	ebffff64 	bl	e6ec <add_event>
    e958:	e51b3020 	ldr	r3, [fp, -#32]
    e95c:	e5933000 	ldr	r3, [r3]
    e960:	e50b3024 	str	r3, [fp, -#36]
    e964:	e51b3024 	ldr	r3, [fp, -#36]
    e968:	e50b3020 	str	r3, [fp, -#32]
    e96c:	eaffffd6 	b	e8cc <fire_watches+0x84>
    e970:	e51b301c 	ldr	r3, [fp, -#28]
    e974:	e5933000 	ldr	r3, [r3]
    e978:	e50b3024 	str	r3, [fp, -#36]
    e97c:	e51b3024 	ldr	r3, [fp, -#36]
    e980:	e50b301c 	str	r3, [fp, -#28]
    e984:	eaffffc4 	b	e89c <fire_watches+0x54>
    e988:	e91ba800 	ldmdb	fp, {fp, sp, pc}
    e98c:	00024800 	andeq	r4, r2, r0, lsl #16

0000e990 <destroy_watch>:
    e990:	e1a0c00d 	mov	ip, sp
    e994:	e92dd800 	stmdb	sp!, {fp, ip, lr, pc}
    e998:	e24cb004 	sub	fp, ip, #4	; 0x4
    e99c:	e24dd004 	sub	sp, sp, #4	; 0x4
    e9a0:	e50b0010 	str	r0, [fp, -#16]
    e9a4:	e51b0010 	ldr	r0, [fp, -#16]
    e9a8:	e59f100c 	ldr	r1, [pc, #12]	; e9bc <destroy_watch+0x2c>
    e9ac:	ebffec88 	bl	9bd4 <trace_destroy>
    e9b0:	e3a03000 	mov	r3, #0	; 0x0
    e9b4:	e1a00003 	mov	r0, r3
    e9b8:	e91ba800 	ldmdb	fp, {fp, sp, pc}
    e9bc:	0001b4a8 	andeq	fp, r1, r8, lsr #9

0000e9c0 <do_watch>:
    e9c0:	e1a0c00d 	mov	ip, sp
    e9c4:	e92dd810 	stmdb	sp!, {r4, fp, ip, lr, pc}
    e9c8:	e24cb004 	sub	fp, ip, #4	; 0x4
    e9cc:	e24dd01c 	sub	sp, sp, #28	; 0x1c
    e9d0:	e50b0014 	str	r0, [fp, -#20]
    e9d4:	e50b1018 	str	r1, [fp, -#24]
    e9d8:	e24b3024 	sub	r3, fp, #36	; 0x24
    e9dc:	e51b0018 	ldr	r0, [fp, -#24]
    e9e0:	e1a01003 	mov	r1, r3
    e9e4:	e3a02002 	mov	r2, #2	; 0x2
    e9e8:	ebfff128 	bl	ae90 <get_strings>
    e9ec:	e1a03000 	mov	r3, r0
    e9f0:	e3530002 	cmp	r3, #2	; 0x2
    e9f4:	0a000003 	beq	ea08 <do_watch+0x48>
    e9f8:	e51b0014 	ldr	r0, [fp, -#20]
    e9fc:	e3a01016 	mov	r1, #22	; 0x16
    ea00:	ebfff193 	bl	b054 <send_error>
    ea04:	ea00009b 	b	ec78 <do_watch+0x2b8>
    ea08:	e3e03013 	mvn	r3, #19	; 0x13
    ea0c:	e24b1010 	sub	r1, fp, #16	; 0x10
    ea10:	e0813003 	add	r3, r1, r3
    ea14:	e5930000 	ldr	r0, [r3]
    ea18:	e59f125c 	ldr	r1, [pc, #604]	; ec7c <do_watch+0x2bc>
    ea1c:	e3a02001 	mov	r2, #1	; 0x1
    ea20:	ebffea7b 	bl	9414 <_init+0x314>
    ea24:	e1a03000 	mov	r3, r0
    ea28:	e3530000 	cmp	r3, #0	; 0x0
    ea2c:	1a000002 	bne	ea3c <do_watch+0x7c>
    ea30:	e3a03000 	mov	r3, #0	; 0x0
    ea34:	e54b3025 	strb	r3, [fp, -#37]
    ea38:	ea000024 	b	ead0 <do_watch+0x110>
    ea3c:	e3e03013 	mvn	r3, #19	; 0x13
    ea40:	e24b2010 	sub	r2, fp, #16	; 0x10
    ea44:	e0823003 	add	r3, r2, r3
    ea48:	e5930000 	ldr	r0, [r3]
    ea4c:	e59f122c 	ldr	r1, [pc, #556]	; ec80 <do_watch+0x2c0>
    ea50:	e3a02001 	mov	r2, #1	; 0x1
    ea54:	ebffea6e 	bl	9414 <_init+0x314>
    ea58:	e1a03000 	mov	r3, r0
    ea5c:	e3530000 	cmp	r3, #0	; 0x0
    ea60:	03a03000 	moveq	r3, #0	; 0x0
    ea64:	13a03001 	movne	r3, #1	; 0x1
    ea68:	e54b3025 	strb	r3, [fp, -#37]
    ea6c:	e3e03013 	mvn	r3, #19	; 0x13
    ea70:	e24b1010 	sub	r1, fp, #16	; 0x10
    ea74:	e0814003 	add	r4, r1, r3
    ea78:	e3e03013 	mvn	r3, #19	; 0x13
    ea7c:	e24b2010 	sub	r2, fp, #16	; 0x10
    ea80:	e0823003 	add	r3, r2, r3
    ea84:	e51b0014 	ldr	r0, [fp, -#20]
    ea88:	e5931000 	ldr	r1, [r3]
    ea8c:	ebfff257 	bl	b3f0 <canonicalize>
    ea90:	e5840000 	str	r0, [r4]
    ea94:	e3e03013 	mvn	r3, #19	; 0x13
    ea98:	e24b1010 	sub	r1, fp, #16	; 0x10
    ea9c:	e0813003 	add	r3, r1, r3
    eaa0:	e5930000 	ldr	r0, [r3]
    eaa4:	ebfff1b6 	bl	b184 <is_valid_nodename>
    eaa8:	e1a03000 	mov	r3, r0
    eaac:	e20330ff 	and	r3, r3, #255	; 0xff
    eab0:	e3530000 	cmp	r3, #0	; 0x0
    eab4:	1a000005 	bne	ead0 <do_watch+0x110>
    eab8:	ebffe9f5 	bl	9294 <_init+0x194>
    eabc:	e1a03000 	mov	r3, r0
    eac0:	e51b0014 	ldr	r0, [fp, -#20]
    eac4:	e5931000 	ldr	r1, [r3]
    eac8:	ebfff161 	bl	b054 <send_error>
    eacc:	ea000069 	b	ec78 <do_watch+0x2b8>
    ead0:	e3a02034 	mov	r2, #52	; 0x34
    ead4:	e51b3014 	ldr	r3, [fp, -#20]
    ead8:	e0823003 	add	r3, r2, r3
    eadc:	e5933000 	ldr	r3, [r3]
    eae0:	e50b302c 	str	r3, [fp, -#44]
    eae4:	e51b302c 	ldr	r3, [fp, -#44]
    eae8:	e50b301c 	str	r3, [fp, -#28]
    eaec:	e51b3014 	ldr	r3, [fp, -#20]
    eaf0:	e2832034 	add	r2, r3, #52	; 0x34
    eaf4:	e51b301c 	ldr	r3, [fp, -#28]
    eaf8:	e1530002 	cmp	r3, r2
    eafc:	1a000000 	bne	eb04 <do_watch+0x144>
    eb00:	ea00001d 	b	eb7c <do_watch+0x1bc>
    eb04:	e51b201c 	ldr	r2, [fp, -#28]
    eb08:	e3e03013 	mvn	r3, #19	; 0x13
    eb0c:	e24b1010 	sub	r1, fp, #16	; 0x10
    eb10:	e0813003 	add	r3, r1, r3
    eb14:	e5920018 	ldr	r0, [r2, #24]
    eb18:	e5931000 	ldr	r1, [r3]
    eb1c:	ebffe99c 	bl	9194 <_init+0x94>
    eb20:	e1a03000 	mov	r3, r0
    eb24:	e3530000 	cmp	r3, #0	; 0x0
    eb28:	1a00000d 	bne	eb64 <do_watch+0x1a4>
    eb2c:	e51b201c 	ldr	r2, [fp, -#28]
    eb30:	e3e03013 	mvn	r3, #19	; 0x13
    eb34:	e24b1010 	sub	r1, fp, #16	; 0x10
    eb38:	e0813003 	add	r3, r1, r3
    eb3c:	e5920014 	ldr	r0, [r2, #20]
    eb40:	e5931004 	ldr	r1, [r3, #4]
    eb44:	ebffe992 	bl	9194 <_init+0x94>
    eb48:	e1a03000 	mov	r3, r0
    eb4c:	e3530000 	cmp	r3, #0	; 0x0
    eb50:	1a000003 	bne	eb64 <do_watch+0x1a4>
    eb54:	e51b0014 	ldr	r0, [fp, -#20]
    eb58:	e3a01011 	mov	r1, #17	; 0x11
    eb5c:	ebfff13c 	bl	b054 <send_error>
    eb60:	ea000044 	b	ec78 <do_watch+0x2b8>
    eb64:	e51b301c 	ldr	r3, [fp, -#28]
    eb68:	e5933000 	ldr	r3, [r3]
    eb6c:	e50b302c 	str	r3, [fp, -#44]
    eb70:	e51b302c 	ldr	r3, [fp, -#44]
    eb74:	e50b301c 	str	r3, [fp, -#28]
    eb78:	eaffffdb 	b	eaec <do_watch+0x12c>
    eb7c:	e51b0014 	ldr	r0, [fp, -#20]
    eb80:	e3a0101c 	mov	r1, #28	; 0x1c
    eb84:	e59f20f8 	ldr	r2, [pc, #248]	; ec84 <do_watch+0x2c4>
    eb88:	eb000b63 	bl	1191c <talloc_named_const>
    eb8c:	e50b001c 	str	r0, [fp, -#28]
    eb90:	e51b401c 	ldr	r4, [fp, -#28]
    eb94:	e3e03013 	mvn	r3, #19	; 0x13
    eb98:	e24b2010 	sub	r2, fp, #16	; 0x10
    eb9c:	e0823003 	add	r3, r2, r3
    eba0:	e51b001c 	ldr	r0, [fp, -#28]
    eba4:	e5931000 	ldr	r1, [r3]
    eba8:	eb001023 	bl	12c3c <talloc_strdup>
    ebac:	e5840018 	str	r0, [r4, #24]
    ebb0:	e51b401c 	ldr	r4, [fp, -#28]
    ebb4:	e3e03013 	mvn	r3, #19	; 0x13
    ebb8:	e24b1010 	sub	r1, fp, #16	; 0x10
    ebbc:	e0813003 	add	r3, r1, r3
    ebc0:	e51b001c 	ldr	r0, [fp, -#28]
    ebc4:	e5931004 	ldr	r1, [r3, #4]
    ebc8:	eb00101b 	bl	12c3c <talloc_strdup>
    ebcc:	e5840014 	str	r0, [r4, #20]
    ebd0:	e55b3025 	ldrb	r3, [fp, -#37]
    ebd4:	e3530000 	cmp	r3, #0	; 0x0
    ebd8:	0a000004 	beq	ebf0 <do_watch+0x230>
    ebdc:	e51b401c 	ldr	r4, [fp, -#28]
    ebe0:	e51b0014 	ldr	r0, [fp, -#20]
    ebe4:	eb000416 	bl	fc44 <get_implicit_path>
    ebe8:	e5840010 	str	r0, [r4, #16]
    ebec:	ea000002 	b	ebfc <do_watch+0x23c>
    ebf0:	e51b201c 	ldr	r2, [fp, -#28]
    ebf4:	e3a03000 	mov	r3, #0	; 0x0
    ebf8:	e5823010 	str	r3, [r2, #16]
    ebfc:	e3a02008 	mov	r2, #8	; 0x8
    ec00:	e51b301c 	ldr	r3, [fp, -#28]
    ec04:	e0822003 	add	r2, r2, r3
    ec08:	e51b301c 	ldr	r3, [fp, -#28]
    ec0c:	e2833008 	add	r3, r3, #8	; 0x8
    ec10:	e5823000 	str	r3, [r2]
    ec14:	e3a02008 	mov	r2, #8	; 0x8
    ec18:	e51b301c 	ldr	r3, [fp, -#28]
    ec1c:	e0822003 	add	r2, r2, r3
    ec20:	e51b301c 	ldr	r3, [fp, -#28]
    ec24:	e2833008 	add	r3, r3, #8	; 0x8
    ec28:	e5823004 	str	r3, [r2, #4]
    ec2c:	e51b3014 	ldr	r3, [fp, -#20]
    ec30:	e2833034 	add	r3, r3, #52	; 0x34
    ec34:	e51b001c 	ldr	r0, [fp, -#28]
    ec38:	e1a01003 	mov	r1, r3
    ec3c:	eb00005d 	bl	edb8 <list_add_tail>
    ec40:	e51b001c 	ldr	r0, [fp, -#28]
    ec44:	e59f103c 	ldr	r1, [pc, #60]	; ec88 <do_watch+0x2c8>
    ec48:	ebffebd5 	bl	9ba4 <trace_create>
    ec4c:	e51b001c 	ldr	r0, [fp, -#28]
    ec50:	e59f1034 	ldr	r1, [pc, #52]	; ec8c <do_watch+0x2cc>
    ec54:	eb000969 	bl	11200 <talloc_set_destructor>
    ec58:	e51b0014 	ldr	r0, [fp, -#20]
    ec5c:	e3a01004 	mov	r1, #4	; 0x4
    ec60:	ebfff0ee 	bl	b020 <send_ack>
    ec64:	e51b301c 	ldr	r3, [fp, -#28]
    ec68:	e51b0014 	ldr	r0, [fp, -#20]
    ec6c:	e51b101c 	ldr	r1, [fp, -#28]
    ec70:	e5932018 	ldr	r2, [r3, #24]
    ec74:	ebfffe9c 	bl	e6ec <add_event>
    ec78:	e91ba810 	ldmdb	fp, {r4, fp, sp, pc}
    ec7c:	0001b4b0 	streqh	fp, [r1], -r0
    ec80:	0001b4b4 	streqh	fp, [r1], -r4
    ec84:	0001b4b8 	streqh	fp, [r1], -r8
    ec88:	0001b4a8 	andeq	fp, r1, r8, lsr #9
    ec8c:	0000e990 	muleq	r0, r0, r9

0000ec90 <do_unwatch>:
    ec90:	e1a0c00d 	mov	ip, sp
    ec94:	e92dd800 	stmdb	sp!, {fp, ip, lr, pc}
    ec98:	e24cb004 	sub	fp, ip, #4	; 0x4
    ec9c:	e24dd01c 	sub	sp, sp, #28	; 0x1c
    eca0:	e50b0010 	str	r0, [fp, -#16]
    eca4:	e50b1014 	str	r1, [fp, -#20]
    eca8:	e24b3024 	sub	r3, fp, #36	; 0x24
    ecac:	e51b0014 	ldr	r0, [fp, -#20]
    ecb0:	e1a01003 	mov	r1, r3
    ecb4:	e3a02002 	mov	r2, #2	; 0x2
    ecb8:	ebfff074 	bl	ae90 <get_strings>
    ecbc:	e1a03000 	mov	r3, r0
    ecc0:	e3530002 	cmp	r3, #2	; 0x2
    ecc4:	0a000003 	beq	ecd8 <do_unwatch+0x48>
    ecc8:	e51b0010 	ldr	r0, [fp, -#16]
    eccc:	e3a01016 	mov	r1, #22	; 0x16
    ecd0:	ebfff0df 	bl	b054 <send_error>
    ecd4:	ea000036 	b	edb4 <do_unwatch+0x124>
    ecd8:	e3e03017 	mvn	r3, #23	; 0x17
    ecdc:	e24b100c 	sub	r1, fp, #12	; 0xc
    ece0:	e0813003 	add	r3, r1, r3
    ece4:	e51b0010 	ldr	r0, [fp, -#16]
    ece8:	e5931000 	ldr	r1, [r3]
    ecec:	ebfff1bf 	bl	b3f0 <canonicalize>
    ecf0:	e1a03000 	mov	r3, r0
    ecf4:	e50b301c 	str	r3, [fp, -#28]
    ecf8:	e3a02034 	mov	r2, #52	; 0x34
    ecfc:	e51b3010 	ldr	r3, [fp, -#16]
    ed00:	e0823003 	add	r3, r2, r3
    ed04:	e5933000 	ldr	r3, [r3]
    ed08:	e50b3028 	str	r3, [fp, -#40]
    ed0c:	e51b3028 	ldr	r3, [fp, -#40]
    ed10:	e50b3018 	str	r3, [fp, -#24]
    ed14:	e51b3010 	ldr	r3, [fp, -#16]
    ed18:	e2832034 	add	r2, r3, #52	; 0x34
    ed1c:	e51b3018 	ldr	r3, [fp, -#24]
    ed20:	e1530002 	cmp	r3, r2
    ed24:	1a000000 	bne	ed2c <do_unwatch+0x9c>
    ed28:	ea00001e 	b	eda8 <do_unwatch+0x118>
    ed2c:	e51b3018 	ldr	r3, [fp, -#24]
    ed30:	e5930018 	ldr	r0, [r3, #24]
    ed34:	e51b101c 	ldr	r1, [fp, -#28]
    ed38:	ebffe915 	bl	9194 <_init+0x94>
    ed3c:	e1a03000 	mov	r3, r0
    ed40:	e3530000 	cmp	r3, #0	; 0x0
    ed44:	1a000011 	bne	ed90 <do_unwatch+0x100>
    ed48:	e51b2018 	ldr	r2, [fp, -#24]
    ed4c:	e3e03017 	mvn	r3, #23	; 0x17
    ed50:	e24b100c 	sub	r1, fp, #12	; 0xc
    ed54:	e0813003 	add	r3, r1, r3
    ed58:	e5920014 	ldr	r0, [r2, #20]
    ed5c:	e5931004 	ldr	r1, [r3, #4]
    ed60:	ebffe90b 	bl	9194 <_init+0x94>
    ed64:	e1a03000 	mov	r3, r0
    ed68:	e3530000 	cmp	r3, #0	; 0x0
    ed6c:	1a000007 	bne	ed90 <do_unwatch+0x100>
    ed70:	e51b0018 	ldr	r0, [fp, -#24]
    ed74:	eb00001b 	bl	ede8 <list_del>
    ed78:	e51b0018 	ldr	r0, [fp, -#24]
    ed7c:	eb000b9d 	bl	11bf8 <talloc_free>
    ed80:	e51b0010 	ldr	r0, [fp, -#16]
    ed84:	e3a01005 	mov	r1, #5	; 0x5
    ed88:	ebfff0a4 	bl	b020 <send_ack>
    ed8c:	ea000008 	b	edb4 <do_unwatch+0x124>
    ed90:	e51b3018 	ldr	r3, [fp, -#24]
    ed94:	e5933000 	ldr	r3, [r3]
    ed98:	e50b3028 	str	r3, [fp, -#40]
    ed9c:	e51b3028 	ldr	r3, [fp, -#40]
    eda0:	e50b3018 	str	r3, [fp, -#24]
    eda4:	eaffffda 	b	ed14 <do_unwatch+0x84>
    eda8:	e51b0010 	ldr	r0, [fp, -#16]
    edac:	e3a01002 	mov	r1, #2	; 0x2
    edb0:	ebfff0a7 	bl	b054 <send_error>
    edb4:	e91ba800 	ldmdb	fp, {fp, sp, pc}

0000edb8 <list_add_tail>:
    edb8:	e1a0c00d 	mov	ip, sp
    edbc:	e92dd800 	stmdb	sp!, {fp, ip, lr, pc}
    edc0:	e24cb004 	sub	fp, ip, #4	; 0x4
    edc4:	e24dd008 	sub	sp, sp, #8	; 0x8
    edc8:	e50b0010 	str	r0, [fp, -#16]
    edcc:	e50b1014 	str	r1, [fp, -#20]
    edd0:	e51b3014 	ldr	r3, [fp, -#20]
    edd4:	e51b0010 	ldr	r0, [fp, -#16]
    edd8:	e5931004 	ldr	r1, [r3, #4]
    eddc:	e51b2014 	ldr	r2, [fp, -#20]
    ede0:	eb000013 	bl	ee34 <__list_add>
    ede4:	e91ba800 	ldmdb	fp, {fp, sp, pc}

0000ede8 <list_del>:
    ede8:	e1a0c00d 	mov	ip, sp
    edec:	e92dd800 	stmdb	sp!, {fp, ip, lr, pc}
    edf0:	e24cb004 	sub	fp, ip, #4	; 0x4
    edf4:	e24dd004 	sub	sp, sp, #4	; 0x4
    edf8:	e50b0010 	str	r0, [fp, -#16]
    edfc:	e51b3010 	ldr	r3, [fp, -#16]
    ee00:	e51b2010 	ldr	r2, [fp, -#16]
    ee04:	e5930004 	ldr	r0, [r3, #4]
    ee08:	e5921000 	ldr	r1, [r2]
    ee0c:	eb00001c 	bl	ee84 <__list_del>
    ee10:	e51b2010 	ldr	r2, [fp, -#16]
    ee14:	e59f3010 	ldr	r3, [pc, #16]	; ee2c <list_del+0x44>
    ee18:	e5823000 	str	r3, [r2]
    ee1c:	e51b2010 	ldr	r2, [fp, -#16]
    ee20:	e59f3008 	ldr	r3, [pc, #8]	; ee30 <list_del+0x48>
    ee24:	e5823004 	str	r3, [r2, #4]
    ee28:	e91ba800 	ldmdb	fp, {fp, sp, pc}
    ee2c:	00100100 	andeqs	r0, r0, r0, lsl #2
    ee30:	00200200 	eoreq	r0, r0, r0, lsl #4

0000ee34 <__list_add>:
    ee34:	e1a0c00d 	mov	ip, sp
    ee38:	e92dd800 	stmdb	sp!, {fp, ip, lr, pc}
    ee3c:	e24cb004 	sub	fp, ip, #4	; 0x4
    ee40:	e24dd00c 	sub	sp, sp, #12	; 0xc
    ee44:	e50b0010 	str	r0, [fp, -#16]
    ee48:	e50b1014 	str	r1, [fp, -#20]
    ee4c:	e50b2018 	str	r2, [fp, -#24]
    ee50:	e51b2018 	ldr	r2, [fp, -#24]
    ee54:	e51b3010 	ldr	r3, [fp, -#16]
    ee58:	e5823004 	str	r3, [r2, #4]
    ee5c:	e51b2010 	ldr	r2, [fp, -#16]
    ee60:	e51b3018 	ldr	r3, [fp, -#24]
    ee64:	e5823000 	str	r3, [r2]
    ee68:	e51b2010 	ldr	r2, [fp, -#16]
    ee6c:	e51b3014 	ldr	r3, [fp, -#20]
    ee70:	e5823004 	str	r3, [r2, #4]
    ee74:	e51b2014 	ldr	r2, [fp, -#20]
    ee78:	e51b3010 	ldr	r3, [fp, -#16]
    ee7c:	e5823000 	str	r3, [r2]
    ee80:	e91ba800 	ldmdb	fp, {fp, sp, pc}

0000ee84 <__list_del>:
    ee84:	e1a0c00d 	mov	ip, sp
    ee88:	e92dd800 	stmdb	sp!, {fp, ip, lr, pc}
    ee8c:	e24cb004 	sub	fp, ip, #4	; 0x4
    ee90:	e24dd008 	sub	sp, sp, #8	; 0x8
    ee94:	e50b0010 	str	r0, [fp, -#16]
    ee98:	e50b1014 	str	r1, [fp, -#20]
    ee9c:	e51b2014 	ldr	r2, [fp, -#20]
    eea0:	e51b3010 	ldr	r3, [fp, -#16]
    eea4:	e5823004 	str	r3, [r2, #4]
    eea8:	e51b2010 	ldr	r2, [fp, -#16]
    eeac:	e51b3014 	ldr	r3, [fp, -#20]
    eeb0:	e5823000 	str	r3, [r2]
    eeb4:	e91ba800 	ldmdb	fp, {fp, sp, pc}

0000eeb8 <evtchn_notify>:
    eeb8:	e1a0c00d 	mov	ip, sp
    eebc:	e92dd800 	stmdb	sp!, {fp, ip, lr, pc}
    eec0:	e24cb004 	sub	fp, ip, #4	; 0x4
    eec4:	e24dd00c 	sub	sp, sp, #12	; 0xc
    eec8:	e50b0010 	str	r0, [fp, -#16]
    eecc:	e51b3010 	ldr	r3, [fp, -#16]
    eed0:	e50b3018 	str	r3, [fp, -#24]
    eed4:	e59f3018 	ldr	r3, [pc, #24]	; eef4 <evtchn_notify+0x3c>
    eed8:	e24b2018 	sub	r2, fp, #24	; 0x18
    eedc:	e5930000 	ldr	r0, [r3]
    eee0:	e59f1010 	ldr	r1, [pc, #16]	; eef8 <evtchn_notify+0x40>
    eee4:	ebffe99a 	bl	9554 <_init+0x454>
    eee8:	e1a03000 	mov	r3, r0
    eeec:	e50b3014 	str	r3, [fp, -#20]
    eef0:	e91ba800 	ldmdb	fp, {fp, sp, pc}
    eef4:	00024990 	muleq	r2, r0, r9
    eef8:	00044504 	andeq	r4, r4, r4, lsl #10

0000eefc <check_indexes>:
    eefc:	e1a0c00d 	mov	ip, sp
    ef00:	e92dd800 	stmdb	sp!, {fp, ip, lr, pc}
    ef04:	e24cb004 	sub	fp, ip, #4	; 0x4
    ef08:	e24dd00c 	sub	sp, sp, #12	; 0xc
    ef0c:	e50b0010 	str	r0, [fp, -#16]
    ef10:	e50b1014 	str	r1, [fp, -#20]
    ef14:	e51b3014 	ldr	r3, [fp, -#20]
    ef18:	e51b2010 	ldr	r2, [fp, -#16]
    ef1c:	e0623003 	rsb	r3, r2, r3
    ef20:	e50b3018 	str	r3, [fp, -#24]
    ef24:	e51b3018 	ldr	r3, [fp, -#24]
    ef28:	e3530b01 	cmp	r3, #1024	; 0x400
    ef2c:	83a03000 	movhi	r3, #0	; 0x0
    ef30:	93a03001 	movls	r3, #1	; 0x1
    ef34:	e50b3018 	str	r3, [fp, -#24]
    ef38:	e51b3018 	ldr	r3, [fp, -#24]
    ef3c:	e1a00003 	mov	r0, r3
    ef40:	e91ba800 	ldmdb	fp, {fp, sp, pc}

0000ef44 <get_output_chunk>:
    ef44:	e1a0c00d 	mov	ip, sp
    ef48:	e92dd800 	stmdb	sp!, {fp, ip, lr, pc}
    ef4c:	e24cb004 	sub	fp, ip, #4	; 0x4
    ef50:	e24dd010 	sub	sp, sp, #16	; 0x10
    ef54:	e50b0010 	str	r0, [fp, -#16]
    ef58:	e50b1014 	str	r1, [fp, -#20]
    ef5c:	e50b2018 	str	r2, [fp, -#24]
    ef60:	e50b301c 	str	r3, [fp, -#28]
    ef64:	e51b201c 	ldr	r2, [fp, -#28]
    ef68:	e51b3014 	ldr	r3, [fp, -#20]
    ef6c:	e1a03b03 	mov	r3, r3, lsl #22
    ef70:	e1a03b23 	mov	r3, r3, lsr #22
    ef74:	e2633b01 	rsb	r3, r3, #1024	; 0x400
    ef78:	e5823000 	str	r3, [r2]
    ef7c:	e51b2014 	ldr	r2, [fp, -#20]
    ef80:	e51b3010 	ldr	r3, [fp, -#16]
    ef84:	e0633002 	rsb	r3, r3, r2
    ef88:	e2632b01 	rsb	r2, r3, #1024	; 0x400
    ef8c:	e51b301c 	ldr	r3, [fp, -#28]
    ef90:	e5933000 	ldr	r3, [r3]
    ef94:	e1520003 	cmp	r2, r3
    ef98:	2a000005 	bcs	efb4 <get_output_chunk+0x70>
    ef9c:	e51b101c 	ldr	r1, [fp, -#28]
    efa0:	e51b2014 	ldr	r2, [fp, -#20]
    efa4:	e51b3010 	ldr	r3, [fp, -#16]
    efa8:	e0633002 	rsb	r3, r3, r2
    efac:	e2633b01 	rsb	r3, r3, #1024	; 0x400
    efb0:	e5813000 	str	r3, [r1]
    efb4:	e51b3014 	ldr	r3, [fp, -#20]
    efb8:	e1a03b03 	mov	r3, r3, lsl #22
    efbc:	e1a03b23 	mov	r3, r3, lsr #22
    efc0:	e51b2018 	ldr	r2, [fp, -#24]
    efc4:	e0833002 	add	r3, r3, r2
    efc8:	e1a00003 	mov	r0, r3
    efcc:	e91ba800 	ldmdb	fp, {fp, sp, pc}

0000efd0 <get_input_chunk>:
    efd0:	e1a0c00d 	mov	ip, sp
